ARM GAS  C:\Users\mame\AppData\Local\Temp\cc8fjAXj.s 			page 1


   1              		.syntax unified
   2              		.cpu cortex-m3
   3              		.fpu softvfp
   4              		.eabi_attribute 20, 1
   5              		.eabi_attribute 21, 1
   6              		.eabi_attribute 23, 3
   7              		.eabi_attribute 24, 1
   8              		.eabi_attribute 25, 1
   9              		.eabi_attribute 26, 1
  10              		.eabi_attribute 30, 1
  11              		.eabi_attribute 34, 1
  12              		.eabi_attribute 18, 4
  13              		.thumb
  14              		.syntax unified
  15              		.file	"misc.c"
  16              		.text
  17              	.Ltext0:
  18              		.cfi_sections	.debug_frame
  19              		.section	.text.blink_LED,"ax",%progbits
  20              		.align	2
  21              		.global	blink_LED
  22              		.thumb
  23              		.thumb_func
  24              		.type	blink_LED, %function
  25              	blink_LED:
  26              	.LFB63:
  27              		.file 1 "misc.c"
   1:misc.c        **** #include "misc.h"
   2:misc.c        **** 
   3:misc.c        **** uint8 blink_LED(uint8 n_blinks) {
  28              		.loc 1 3 0
  29              		.cfi_startproc
  30              		@ args = 0, pretend = 0, frame = 0
  31              		@ frame_needed = 0, uses_anonymous_args = 0
  32              	.LVL0:
  33 0000 38B5     		push	{r3, r4, r5, lr}
  34              		.cfi_def_cfa_offset 16
  35              		.cfi_offset 3, -16
  36              		.cfi_offset 4, -12
  37              		.cfi_offset 5, -8
  38              		.cfi_offset 14, -4
  39 0002 0546     		mov	r5, r0
  40              	.LVL1:
   4:misc.c        **** 	uint8 k;
   5:misc.c        **** 	for (k = 0; k < n_blinks; k++) {
  41              		.loc 1 5 0
  42 0004 0024     		movs	r4, #0
  43 0006 0DE0     		b	.L2
  44              	.LVL2:
  45              	.L3:
   6:misc.c        **** 		LED_Write(1u);
  46              		.loc 1 6 0 discriminator 3
  47 0008 0120     		movs	r0, #1
  48 000a FFF7FEFF 		bl	LED_Write
  49              	.LVL3:
   7:misc.c        **** 		CyDelay(200u);
  50              		.loc 1 7 0 discriminator 3
ARM GAS  C:\Users\mame\AppData\Local\Temp\cc8fjAXj.s 			page 2


  51 000e C820     		movs	r0, #200
  52 0010 FFF7FEFF 		bl	CyDelay
  53              	.LVL4:
   8:misc.c        **** 		LED_Write(0u);
  54              		.loc 1 8 0 discriminator 3
  55 0014 0020     		movs	r0, #0
  56 0016 FFF7FEFF 		bl	LED_Write
  57              	.LVL5:
   9:misc.c        **** 		CyDelay(200u);
  58              		.loc 1 9 0 discriminator 3
  59 001a C820     		movs	r0, #200
  60 001c FFF7FEFF 		bl	CyDelay
  61              	.LVL6:
   5:misc.c        **** 		LED_Write(1u);
  62              		.loc 1 5 0 discriminator 3
  63 0020 0134     		adds	r4, r4, #1
  64              	.LVL7:
  65 0022 E4B2     		uxtb	r4, r4
  66              	.LVL8:
  67              	.L2:
   5:misc.c        **** 		LED_Write(1u);
  68              		.loc 1 5 0 is_stmt 0 discriminator 1
  69 0024 AC42     		cmp	r4, r5
  70 0026 EFD3     		bcc	.L3
  10:misc.c        **** 	}	
  11:misc.c        **** 	return 1u;
  12:misc.c        **** }
  71              		.loc 1 12 0 is_stmt 1
  72 0028 0120     		movs	r0, #1
  73 002a 38BD     		pop	{r3, r4, r5, pc}
  74              		.cfi_endproc
  75              	.LFE63:
  76              		.size	blink_LED, .-blink_LED
  77              		.text
  78              	.Letext0:
  79              		.file 2 "c:\\program files\\cypress\\psoc creator\\4.1\\psoc creator\\import\\gnu\\arm\\5.4.1\\arm
  80              		.file 3 "c:\\program files\\cypress\\psoc creator\\4.1\\psoc creator\\import\\gnu\\arm\\5.4.1\\arm
  81              		.file 4 "Generated_Source\\PSoC5/cytypes.h"
  82              		.file 5 "Generated_Source\\PSoC5/LED.h"
  83              		.file 6 "Generated_Source\\PSoC5/CyLib.h"
  84              		.file 7 "Generated_Source\\PSoC5/core_cm3.h"