ARM GAS  C:\Users\mame\AppData\Local\Temp\ccpggl3x.s 			page 1


   1              		.syntax unified
   2              		.cpu cortex-m3
   3              		.fpu softvfp
   4              		.eabi_attribute 20, 1
   5              		.eabi_attribute 21, 1
   6              		.eabi_attribute 23, 3
   7              		.eabi_attribute 24, 1
   8              		.eabi_attribute 25, 1
   9              		.eabi_attribute 26, 1
  10              		.eabi_attribute 30, 1
  11              		.eabi_attribute 34, 1
  12              		.eabi_attribute 18, 4
  13              		.thumb
  14              		.syntax unified
  15              		.file	"SDI12.c"
  16              		.text
  17              	.Ltext0:
  18              		.cfi_sections	.debug_frame
  19              		.section	.text.isr_SDI12_data,"ax",%progbits
  20              		.align	2
  21              		.global	isr_SDI12_data
  22              		.thumb
  23              		.thumb_func
  24              		.type	isr_SDI12_data, %function
  25              	isr_SDI12_data:
  26              	.LFB75:
  27              		.file 1 "SDI12.c"
   1:SDI12.c       **** /**
   2:SDI12.c       ****  * @file SDI12.c
   3:SDI12.c       ****  * @brief Implements functions for SDI12 sensors.
   4:SDI12.c       ****  * @author Brandon Wong
   5:SDI12.c       ****  * @version TODO
   6:SDI12.c       ****  * @date 2017-10-28
   7:SDI12.c       ****  */
   8:SDI12.c       **** 
   9:SDI12.c       **** #include "SDI12.h"
  10:SDI12.c       **** #include "misc.h"
  11:SDI12.c       **** 
  12:SDI12.c       **** //*========== #BEGIN Define SDI12 sensors ==========//
  13:SDI12.c       **** //----------   SDI12 Array   ----------//
  14:SDI12.c       **** #define N_SDI12_SENSORS     2           // Total number of sensors defined
  15:SDI12.c       **** SDI12_sensor sensors[N_SDI12_SENSORS];  // GOTO zip_SDI12()
  16:SDI12.c       **** 
  17:SDI12.c       **** //----------  (1/2) Solinst  ----------//
  18:SDI12.c       **** char* labels[] = {"solinst_T","solinst_P"};
  19:SDI12.c       **** float values[] = {-99.0, -98.0};
  20:SDI12.c       **** SDI12_sensor solinst = { 
  21:SDI12.c       ****     .nvars   = 2,
  22:SDI12.c       ****     .address = "0",
  23:SDI12.c       ****     .labels  = labels,
  24:SDI12.c       ****     .values  = values
  25:SDI12.c       ****     // additional metadata should initialize to 0 or '\0' //
  26:SDI12.c       **** }; 
  27:SDI12.c       **** 
  28:SDI12.c       **** //----------  (2/2) Decagon  ----------//
  29:SDI12.c       **** char* GS3_labels[] = {"GS3_1","GS3_2","GS3_3"};
  30:SDI12.c       **** float GS3_values[] = {-97.0, -95.0, -94.9};
ARM GAS  C:\Users\mame\AppData\Local\Temp\ccpggl3x.s 			page 2


  31:SDI12.c       **** SDI12_sensor GS3 = {
  32:SDI12.c       ****     .nvars   = 3,
  33:SDI12.c       ****     .address = "1",
  34:SDI12.c       ****     .labels  = GS3_labels,
  35:SDI12.c       ****     .values  = GS3_values        
  36:SDI12.c       ****     // additional metadata should initialize to 0 or '\0' //
  37:SDI12.c       **** };  
  38:SDI12.c       **** // ========== #END   Define SDI12 sensors ==========//*/
  39:SDI12.c       **** 
  40:SDI12.c       **** // The buffer and index are dependent on eachother. This buffer is implemented
  41:SDI12.c       **** // as a circular buffer to avoid overflow.
  42:SDI12.c       **** static char SDI12_uart_buf[257] = {'\0'};
  43:SDI12.c       **** static uint8_t SDI12_buf_idx = 0u;
  44:SDI12.c       **** 
  45:SDI12.c       **** // unsigned ints for taking measurements
  46:SDI12.c       **** uint8         i = 0u; // for iterating through sensor measurements
  47:SDI12.c       **** uint32 ms_delay = 0u; // for delaying the code while measurements are being taken
  48:SDI12.c       **** 
  49:SDI12.c       **** // string for constructing the command sent to the SDI12 sensor
  50:SDI12.c       **** char command[100] = {'\0'};
  51:SDI12.c       **** 
  52:SDI12.c       **** // string and pointer to store and parse SDI12 measurement results
  53:SDI12.c       **** char value_str[100] = {'\0'}, delay_str[10] = {'\0'}, *ptr_end, *sign; 
  54:SDI12.c       **** 
  55:SDI12.c       **** 
  56:SDI12.c       **** void SDI12_start(){
  57:SDI12.c       ****     SDI12_UART_Start();
  58:SDI12.c       ****     isr_SDI12_StartEx(isr_SDI12_data); 
  59:SDI12.c       **** }
  60:SDI12.c       **** 
  61:SDI12.c       **** void SDI12_stop(){
  62:SDI12.c       ****     isr_SDI12_Stop(); 
  63:SDI12.c       ****     SDI12_UART_Stop();
  64:SDI12.c       **** }
  65:SDI12.c       **** 
  66:SDI12.c       **** /**
  67:SDI12.c       ****  * @brief 
  68:SDI12.c       ****  */
  69:SDI12.c       **** void SDI12_uart_clear_string() {
  70:SDI12.c       ****     SDI12_UART_ClearRxBuffer();
  71:SDI12.c       ****     memset(SDI12_uart_buf, '\0', sizeof(SDI12_uart_buf));
  72:SDI12.c       ****     SDI12_buf_idx = 0u;
  73:SDI12.c       **** }
  74:SDI12.c       **** 
  75:SDI12.c       **** char* sensors_uart_get_string() {
  76:SDI12.c       ****     return SDI12_uart_buf; 
  77:SDI12.c       **** }
  78:SDI12.c       **** 
  79:SDI12.c       **** 
  80:SDI12.c       **** /**
  81:SDI12.c       ****  * @brief Send an SDI12-formatted command. A command always starts with
  82:SDI12.c       ****  *        the address of the sensor, followed by the command, and is terminated by 
  83:SDI12.c       ****  *        and exclamation point: <address><command>!
  84:SDI12.c       ****  * 
  85:SDI12.c       ****  * @param command String of the command to send
  86:SDI12.c       ****  *
  87:SDI12.c       ****  */
ARM GAS  C:\Users\mame\AppData\Local\Temp\ccpggl3x.s 			page 3


  88:SDI12.c       **** void SDI12_send_command(char command[]) {
  89:SDI12.c       ****     // Wake up the sensors
  90:SDI12.c       ****     // Pull the Data pin high for 12 milliseconds
  91:SDI12.c       ****     SDI12_control_reg_Write(1u);
  92:SDI12.c       ****     CyDelayUs(12000u);  // 12 milliseconds = 12 x 10^3 microseconds
  93:SDI12.c       **** 
  94:SDI12.c       ****     // Pull the Data pin low for 8.4 milliseconds
  95:SDI12.c       ****     SDI12_control_reg_Write(0u);
  96:SDI12.c       ****     CyDelayUs(8400u);   // 8.4 milliseconds = 8.4 x 10^3 microseconds
  97:SDI12.c       ****         
  98:SDI12.c       ****     // Write the command to the Data pin
  99:SDI12.c       ****     SDI12_UART_PutString(command);
 100:SDI12.c       **** }
 101:SDI12.c       **** 
 102:SDI12.c       **** /**
 103:SDI12.c       ****  * @brief Check if an SDI12 sensor is on, given its address
 104:SDI12.c       ****  * 
 105:SDI12.c       ****  * @param sensor SDI12_sensor that we want to check the status of
 106:SDI12.c       ****  *
 107:SDI12.c       ****  * @return 1u if active, 0u if inactive
 108:SDI12.c       ****  */
 109:SDI12.c       **** uint8 SDI12_is_active(SDI12_sensor* sensor) {
 110:SDI12.c       ****     /* 1. Request if SDI12 sensor is active */
 111:SDI12.c       ****     clear_str(command);
 112:SDI12.c       ****     
 113:SDI12.c       ****     /* 2. Construct the command <address><command><!> */
 114:SDI12.c       ****     sprintf(command,"%s%s%s",(*sensor).address,ACK_ACTIVE,"!");
 115:SDI12.c       ****     SDI12_uart_clear_string();
 116:SDI12.c       ****     
 117:SDI12.c       ****     /* 3. Send the command to the sensor */
 118:SDI12.c       ****     SDI12_send_command(command);
 119:SDI12.c       ****     
 120:SDI12.c       ****     /* 4. Parse the received data, if any */
 121:SDI12.c       ****     /* TODO: This can be shortened using a for-loop like in SDI12_take_measurement() */
 122:SDI12.c       ****     CyDelay(1000u); // Delay for readings to be transmitted
 123:SDI12.c       ****     
 124:SDI12.c       ****     // Copy the SDI12 UART buffer into temporary buffer
 125:SDI12.c       ****     // *TODO: Parse sensor address from the response
 126:SDI12.c       ****     clear_str(value_str);
 127:SDI12.c       ****     if (strextract(SDI12_uart_buf, value_str, "!" ,"\r\n")) {
 128:SDI12.c       ****         // If "\r\n" is in the response, the sensor is active
 129:SDI12.c       ****         return 1u;
 130:SDI12.c       ****     }
 131:SDI12.c       ****     
 132:SDI12.c       ****     return 0u;
 133:SDI12.c       **** }
 134:SDI12.c       **** 
 135:SDI12.c       **** /** 
 136:SDI12.c       ****  * @brief Change the address of an SDI12 sensor
 137:SDI12.c       ****  *
 138:SDI12.c       ****  * @param sensor SDI12_sensor that we want to change the address of
 139:SDI12.c       ****  * @param new_address String (single char, either 0-9, a-z, A-Z) of the desired address
 140:SDI12.c       ****  *
 141:SDI12.c       ****  * @return 1u if successful, 0u if unsuccessful
 142:SDI12.c       ****  */
 143:SDI12.c       **** uint8 SDI12_change_address(SDI12_sensor* sensor, char new_address[]) {
 144:SDI12.c       ****  
ARM GAS  C:\Users\mame\AppData\Local\Temp\ccpggl3x.s 			page 4


 145:SDI12.c       ****     /* 1. Request measurement from addressed SDI12 sensor */
 146:SDI12.c       ****     clear_str(command);
 147:SDI12.c       ****     sprintf(command,"%s%s%s%s",(*sensor).address,CHANGE_ADDR,new_address,"!");
 148:SDI12.c       ****     
 149:SDI12.c       ****     SDI12_uart_clear_string();
 150:SDI12.c       ****     SDI12_send_command(command);    
 151:SDI12.c       ****         
 152:SDI12.c       ****     // Delay max 1000 ms
 153:SDI12.c       ****     // Look for <new address><CR><LF> in the buffer
 154:SDI12.c       ****     clear_str(value_str);
 155:SDI12.c       ****     sprintf(value_str, "%s\r\n", new_address);
 156:SDI12.c       ****     for (i = 0; i < 200; i++) { 
 157:SDI12.c       ****         CyDelay(5u);
 158:SDI12.c       ****         if ( strstr(SDI12_uart_buf, value_str) ) {
 159:SDI12.c       ****             (*sensor).address = new_address;
 160:SDI12.c       ****             return 1u;
 161:SDI12.c       ****         }
 162:SDI12.c       ****     }
 163:SDI12.c       ****     
 164:SDI12.c       ****     return 0u;
 165:SDI12.c       **** }
 166:SDI12.c       **** 
 167:SDI12.c       **** 
 168:SDI12.c       **** /**
 169:SDI12.c       ****  * @brief Take a measurement for an SDI12 sensor, given its address
 170:SDI12.c       ****  * 
 171:SDI12.c       ****  * @param sensor SDI12_sensor that we want to request measurements from
 172:SDI12.c       ****  *
 173:SDI12.c       ****  * @ return 1u if measurements were successfully taken, 0u if there was a communication error
 174:SDI12.c       ****  */
 175:SDI12.c       **** uint8 SDI12_take_measurement(SDI12_sensor* sensor) {
 176:SDI12.c       ****         
 177:SDI12.c       ****     /* 1. Request measurement from addressed SDI12 sensor */
 178:SDI12.c       ****     clear_str(command);
 179:SDI12.c       ****     sprintf(command,"%s%s%s",(*sensor).address,TAKE_MEASUREMENT,"!");
 180:SDI12.c       ****     
 181:SDI12.c       ****     SDI12_uart_clear_string();
 182:SDI12.c       ****     SDI12_send_command(command);
 183:SDI12.c       ****     
 184:SDI12.c       ****     /* 2. Delay for measurement to be taken */
 185:SDI12.c       ****     /*
 186:SDI12.c       ****      * The address sensor responds within 15.0 ms, returning the
 187:SDI12.c       ****      * maximum time until the measurement data will be ready and the
 188:SDI12.c       ****      * number of data values it will return
 189:SDI12.c       ****      */
 190:SDI12.c       ****     clear_str(value_str); 
 191:SDI12.c       ****     clear_str(delay_str);
 192:SDI12.c       ****     
 193:SDI12.c       ****     // supposedly response time is 15 ms, but delaying max 1000 ms to be safe
 194:SDI12.c       ****     // TODO: When taking concurrent measurements, look for <address><CR><LF>
 195:SDI12.c       ****     for (i = 0; i < 200; i++) { 
 196:SDI12.c       ****         CyDelay(5u);
 197:SDI12.c       ****         if ( strextract(SDI12_uart_buf, value_str, "!","\r\n") ) {
 198:SDI12.c       ****             break;
 199:SDI12.c       ****         }
 200:SDI12.c       ****     }
 201:SDI12.c       ****     
ARM GAS  C:\Users\mame\AppData\Local\Temp\ccpggl3x.s 			page 5


 202:SDI12.c       ****     /* Delay while measurements are being prepared */
 203:SDI12.c       ****     /*
 204:SDI12.c       ****      * The returned format for <address>M! is atttn<CR><LF>
 205:SDI12.c       ****      * (NOTE: The returned format for <address>C! is atttnn<CR><LF> -- this will be useful when req
 206:SDI12.c       ****      *        concurrent measurements in the future)
 207:SDI12.c       ****      * Where,
 208:SDI12.c       ****      * -    a: sensor address
 209:SDI12.c       ****      * -  ttt: maximum time until measurement is ready
 210:SDI12.c       ****      * - n(n): number of data values that will be returned
 211:SDI12.c       ****      */
 212:SDI12.c       ****     strncpy(delay_str, value_str+strlen((*sensor).address), 3); // shift ptr by strlen(...) to skip
 213:SDI12.c       ****     ms_delay = ( (uint32) strtod(delay_str,(char**) NULL) ) * 1000u;
 214:SDI12.c       ****     CyDelay(ms_delay);
 215:SDI12.c       ****     
 216:SDI12.c       ****     /* 3. Request data from SDI12 sensor */
 217:SDI12.c       ****     clear_str(command);    
 218:SDI12.c       ****     clear_str(value_str);
 219:SDI12.c       ****     sprintf(command,"%s%s%s",(*sensor).address,READ_MEASUREMENT,"!");   
 220:SDI12.c       ****     
 221:SDI12.c       ****     SDI12_uart_clear_string();
 222:SDI12.c       ****     SDI12_send_command(command);
 223:SDI12.c       ****     
 224:SDI12.c       ****     // Delay a maximum of 1000 ms as readings are transmitted
 225:SDI12.c       ****     for (i = 0; i < 200; i++) {
 226:SDI12.c       ****         CyDelay(5u);
 227:SDI12.c       ****         
 228:SDI12.c       ****         // Copy the SDI12 UART buffer into temporary buffer, value_str
 229:SDI12.c       ****         // and break once "\r\n" is returned
 230:SDI12.c       ****         if ( strextract(SDI12_uart_buf, value_str, "!","\r\n") ) {
 231:SDI12.c       ****             break;
 232:SDI12.c       ****         }
 233:SDI12.c       ****     }
 234:SDI12.c       ****     
 235:SDI12.c       ****     
 236:SDI12.c       ****     /* 4. Parse the received data */    
 237:SDI12.c       ****     // Check for "+" or "-" signs to ensure data was sent
 238:SDI12.c       ****     // First check for "+"
 239:SDI12.c       ****     sign = strstr(value_str,"+");
 240:SDI12.c       ****     if (sign == NULL) {
 241:SDI12.c       ****         // If there is no + sign, check for "-"
 242:SDI12.c       ****         sign = strstr(value_str,"-");
 243:SDI12.c       ****         
 244:SDI12.c       ****         // The absence of "+" or "-" indicates no data was sent yet
 245:SDI12.c       ****         // Return 0 and try querying the sensor again later
 246:SDI12.c       ****         if (sign == NULL) {
 247:SDI12.c       ****             for (i = 0; i < (*sensor).nvars; i++) {
 248:SDI12.c       ****                 (*sensor).values[i] = -9999.0f;
 249:SDI12.c       ****             }
 250:SDI12.c       ****             return 0u;
 251:SDI12.c       ****         }
 252:SDI12.c       ****     }
 253:SDI12.c       ****     
 254:SDI12.c       ****     // Set the pointer to the start of the returned results
 255:SDI12.c       ****     // and shift forward past the address byte
 256:SDI12.c       ****     ptr_end = value_str + strlen((*sensor).address);
 257:SDI12.c       ****     
 258:SDI12.c       ****     // Parse and store all values returned from the sensor
ARM GAS  C:\Users\mame\AppData\Local\Temp\ccpggl3x.s 			page 6


 259:SDI12.c       ****     for (i = 0; i < (*sensor).nvars; i++) {
 260:SDI12.c       ****         (*sensor).values[i] = (float) strtod(ptr_end, &ptr_end);
 261:SDI12.c       ****     }
 262:SDI12.c       ****     
 263:SDI12.c       ****     return 1u;
 264:SDI12.c       ****     
 265:SDI12.c       **** }
 266:SDI12.c       **** 
 267:SDI12.c       **** /**
 268:SDI12.c       ****  * @brief TODO: Take a concurrent measurement for an SDI12 sensor, given its address
 269:SDI12.c       ****  * 
 270:SDI12.c       ****  * @param sensor SDI12_sensor that we want to request measurements from
 271:SDI12.c       ****  *
 272:SDI12.c       ****  * @ return if sensor is active
 273:SDI12.c       ****  */
 274:SDI12.c       **** uint8 SDI12_take_concurrent_measurement(SDI12_sensor* sensor) {
 275:SDI12.c       ****     /* TODO */
 276:SDI12.c       ****     /*
 277:SDI12.c       ****      * Concurrent measurements enable measurements to be triggered for
 278:SDI12.c       ****      * multiple sensors, rather than doing one at a time.
 279:SDI12.c       ****      * 
 280:SDI12.c       ****      * Requires SDI12 V1.2 or greater.
 281:SDI12.c       ****      *
 282:SDI12.c       ****      * Currently returning a dummy response for now.
 283:SDI12.c       ****      */
 284:SDI12.c       ****     return SDI12_is_active(sensor);
 285:SDI12.c       **** }
 286:SDI12.c       **** 
 287:SDI12.c       **** /**
 288:SDI12.c       ****  * @brief Obtain detailed info about an SDI12 sensor, given its address
 289:SDI12.c       ****  * 
 290:SDI12.c       ****  * @param sensor SDI12_sensor that we want to request info from
 291:SDI12.c       ****  *
 292:SDI12.c       ****  * @ return 1u if successful, 0u if unsuccessful
 293:SDI12.c       ****  */
 294:SDI12.c       **** uint8 SDI12_info(SDI12_sensor* sensor) {
 295:SDI12.c       **** 
 296:SDI12.c       ****     /* 1. Request measurement from addressed SDI12 sensor */
 297:SDI12.c       ****     clear_str(command);
 298:SDI12.c       ****     sprintf(command,"%s%s%s",(*sensor).address,INFO,"!");
 299:SDI12.c       ****     
 300:SDI12.c       ****     SDI12_uart_clear_string();
 301:SDI12.c       ****     SDI12_send_command(command);    
 302:SDI12.c       **** 
 303:SDI12.c       ****     clear_str(value_str);
 304:SDI12.c       ****     
 305:SDI12.c       ****     // Look for <CR><LF> in the buffer since <CR><LR> terminates all responses, if there is one 
 306:SDI12.c       ****     // Delay max 1000 ms while doing so
 307:SDI12.c       ****     for (i = 0; i < 200; i++) { 
 308:SDI12.c       ****         CyDelay(5u);
 309:SDI12.c       ****         if (strextract(SDI12_uart_buf, value_str, "!" ,"\r\n")) {
 310:SDI12.c       ****         // If "\r\n" is in the response, then the sensor is active
 311:SDI12.c       ****             
 312:SDI12.c       ****             ptr_end = value_str;
 313:SDI12.c       ****             // Attempt to parse the information and store in "sensor"
 314:SDI12.c       ****             // Move the pointer past the address 
 315:SDI12.c       ****             ptr_end += strlen((*sensor).address);
ARM GAS  C:\Users\mame\AppData\Local\Temp\ccpggl3x.s 			page 7


 316:SDI12.c       ****             
 317:SDI12.c       ****             // SDI-12 specification (2 chars)
 318:SDI12.c       ****             strncpy((*sensor).v_SDI12, ptr_end, 2);
 319:SDI12.c       ****             ptr_end += 2;
 320:SDI12.c       ****             
 321:SDI12.c       ****             // Vendor identification (8 chars)
 322:SDI12.c       ****             strncpy((*sensor).vendor, ptr_end, 8);
 323:SDI12.c       ****             ptr_end += 8;
 324:SDI12.c       ****             
 325:SDI12.c       ****             // Sensor Model (6 chars)
 326:SDI12.c       ****             strncpy((*sensor).model, ptr_end, 6);
 327:SDI12.c       ****             ptr_end += 6;
 328:SDI12.c       ****             
 329:SDI12.c       ****             // Sensor Version (3 chars)
 330:SDI12.c       ****             strncpy((*sensor).version, ptr_end, 3);
 331:SDI12.c       ****             ptr_end += 3;
 332:SDI12.c       ****             
 333:SDI12.c       ****             // Sensor Serial number / misc info (up to 13 chars)
 334:SDI12.c       ****             strncpy((*sensor).serial, ptr_end, 13);
 335:SDI12.c       ****             
 336:SDI12.c       ****             // Assume successful if we reached this point
 337:SDI12.c       ****             return 1u;
 338:SDI12.c       ****         }
 339:SDI12.c       ****     }
 340:SDI12.c       ****     
 341:SDI12.c       ****     return 0u;
 342:SDI12.c       **** }
 343:SDI12.c       **** 
 344:SDI12.c       **** uint8 zip_SDI12(int SDI12_flag) {
 345:SDI12.c       ****     char output[100] = {'\0'}; // For debugging
 346:SDI12.c       ****     uint8 i, j, k, valid;
 347:SDI12.c       ****     
 348:SDI12.c       ****     sensors[0] = solinst;
 349:SDI12.c       ****     sensors[1] = GS3;
 350:SDI12.c       ****     
 351:SDI12.c       ****     SDI12_start();
 352:SDI12.c       ****     SDI12_Power_Write(1u);
 353:SDI12.c       ****       
 354:SDI12.c       ****     // Iterate through each SDI12 sensor
 355:SDI12.c       ****     // TODO: Reconstruct to go thorugh each bit of SDI12_flag if
 356:SDI12.c       ****     //       SDI12_flag is used to flag multiple SDI-12 sensors
 357:SDI12.c       ****     //       (This assumes the number of bits < N_SDI12_SENSORS)
 358:SDI12.c       ****     for (k = 0; k < N_SDI12_SENSORS;  k++) {
 359:SDI12.c       ****         if (0x00000001 & SDI12_flag>>k)  {
 360:SDI12.c       ****             /*/ Ensure we don't access nonexistent array index
 361:SDI12.c       ****             if(*array_ix + (sensors[k]).nvars >= max_size){
 362:SDI12.c       ****                 return *array_ix;
 363:SDI12.c       ****             }    
 364:SDI12.c       ****             //*/
 365:SDI12.c       ****             
 366:SDI12.c       ****             //* ---------- Take measurement(s) from k'th SDI-12 sesnor ---------- //
 367:SDI12.c       ****             valid = 0; // Reinitialize sensor status
 368:SDI12.c       ****             
 369:SDI12.c       ****             // Let the sensor power up max 10000 ms = 10 * 1000 ms
 370:SDI12.c       ****             for (i = 0; i < 50; i++) {
 371:SDI12.c       ****                 CyDelay(200u);
 372:SDI12.c       ****                 
ARM GAS  C:\Users\mame\AppData\Local\Temp\ccpggl3x.s 			page 8


 373:SDI12.c       ****                 valid = SDI12_is_active(&sensors[k]); 
 374:SDI12.c       ****                 if (valid == 1u){  
 375:SDI12.c       ****                     
 376:SDI12.c       ****                     LED_Write(0u);
 377:SDI12.c       ****                     
 378:SDI12.c       ****                     
 379:SDI12.c       ****                     //valid = SDI12_change_address(&sensors[0],"0");
 380:SDI12.c       ****                     CyDelay(200u); 
 381:SDI12.c       ****                     valid = SDI12_info(&sensors[k]); 
 382:SDI12.c       ****                     CyDelay(200u);
 383:SDI12.c       **** 
 384:SDI12.c       ****                     if (SDI12_take_measurement(&sensors[k])) {
 385:SDI12.c       ****                         valid = 1; // Successfully took a measurement
 386:SDI12.c       ****                         blink_LED(1u);
 387:SDI12.c       ****                         break;                    
 388:SDI12.c       ****                     } else {
 389:SDI12.c       ****                         // SDI12 sensor powered on, but unable to parse response
 390:SDI12.c       ****                         valid = -2;                    
 391:SDI12.c       ****                         for (j = 0; j < (sensors[k]).nvars; j++) {
 392:SDI12.c       ****                             (sensors[k]).values[j] = (float) valid;
 393:SDI12.c       ****                         }
 394:SDI12.c       ****                         blink_LED(4u);
 395:SDI12.c       ****                     }            
 396:SDI12.c       ****                                             
 397:SDI12.c       ****                 } else {
 398:SDI12.c       ****                     // SDI12 sensor not responding. It may be powered off or have a different addre
 399:SDI12.c       ****                     valid = -1;
 400:SDI12.c       ****                     for (j = 0; j < (sensors[k]).nvars; j++) {
 401:SDI12.c       ****                         (sensors[k]).values[j] = (float) valid;
 402:SDI12.c       ****                     }
 403:SDI12.c       ****                     LED_Write(1u);
 404:SDI12.c       ****                     
 405:SDI12.c       ****                 }
 406:SDI12.c       ****             }
 407:SDI12.c       ****             
 408:SDI12.c       ****             LED_Write(0u);
 409:SDI12.c       ****             
 410:SDI12.c       ****             //* ---------- Insert measurement(s) from k'th SDI-12 sesnor ---------- //
 411:SDI12.c       ****             // char[] output is used for debugging purposes
 412:SDI12.c       ****             clear_str(output); 
 413:SDI12.c       ****             
 414:SDI12.c       ****             // Insert current values in labels[] and readings[]
 415:SDI12.c       ****             for (j = 0; j < (sensors[k]).nvars; j++) {
 416:SDI12.c       ****                 // char[] output is used for debugging purposes
 417:SDI12.c       ****                 sprintf(output,"%s %s %f", output, (sensors[k]).labels[j], (sensors[k]).values[j]);
 418:SDI12.c       ****                 
 419:SDI12.c       ****                 /*/
 420:SDI12.c       ****                 labels[*array_ix] = (sensors[k]).labels[j];
 421:SDI12.c       ****                 readings[*array_ix] = (sensors[k]).values[j];
 422:SDI12.c       ****                 (*array_ix) += 1;
 423:SDI12.c       ****                 //*/
 424:SDI12.c       ****             }              
 425:SDI12.c       ****             
 426:SDI12.c       ****         }
 427:SDI12.c       ****           
 428:SDI12.c       ****     }
 429:SDI12.c       ****                 
ARM GAS  C:\Users\mame\AppData\Local\Temp\ccpggl3x.s 			page 9


 430:SDI12.c       ****     SDI12_Power_Write(0u);
 431:SDI12.c       ****     SDI12_stop(); 
 432:SDI12.c       ****     
 433:SDI12.c       ****     return 0;//*array_ix;
 434:SDI12.c       **** }
 435:SDI12.c       **** 
 436:SDI12.c       **** CY_ISR(isr_SDI12_data) {
  28              		.loc 1 436 0
  29              		.cfi_startproc
  30              		@ args = 0, pretend = 0, frame = 0
  31              		@ frame_needed = 0, uses_anonymous_args = 0
  32 0000 08B5     		push	{r3, lr}
  33              		.cfi_def_cfa_offset 8
  34              		.cfi_offset 3, -8
  35              		.cfi_offset 14, -4
 437:SDI12.c       ****     // hold the next char in the rx register as a temporary variable
 438:SDI12.c       ****     char rx_char = SDI12_UART_GetChar();
  36              		.loc 1 438 0
  37 0002 FFF7FEFF 		bl	SDI12_UART_GetChar
  38              	.LVL0:
 439:SDI12.c       **** 
 440:SDI12.c       ****     // store the char in SDI12_uart_buf
 441:SDI12.c       ****     if (rx_char) {
  39              		.loc 1 441 0
  40 0006 30B1     		cbz	r0, .L1
  41 0008 0146     		mov	r1, r0
 442:SDI12.c       ****         // unsigned ints don't `overflow`, they reset at 0 if they are
 443:SDI12.c       ****         // incremented one more than it's max value. It will be obvious if an
 444:SDI12.c       ****         // `overflow` occurs
 445:SDI12.c       ****         SDI12_uart_buf[SDI12_buf_idx++] = rx_char;
  42              		.loc 1 445 0
  43 000a 034A     		ldr	r2, .L4
  44 000c 1378     		ldrb	r3, [r2]	@ zero_extendqisi2
  45 000e 581C     		adds	r0, r3, #1
  46              	.LVL1:
  47 0010 1070     		strb	r0, [r2]
  48 0012 1344     		add	r3, r3, r2
  49 0014 1971     		strb	r1, [r3, #4]
  50              	.L1:
  51 0016 08BD     		pop	{r3, pc}
  52              	.L5:
  53              		.align	2
  54              	.L4:
  55 0018 00000000 		.word	.LANCHOR0
  56              		.cfi_endproc
  57              	.LFE75:
  58              		.size	isr_SDI12_data, .-isr_SDI12_data
  59              		.section	.text.SDI12_start,"ax",%progbits
  60              		.align	2
  61              		.global	SDI12_start
  62              		.thumb
  63              		.thumb_func
  64              		.type	SDI12_start, %function
  65              	SDI12_start:
  66              	.LFB64:
  56:SDI12.c       ****     SDI12_UART_Start();
  67              		.loc 1 56 0
ARM GAS  C:\Users\mame\AppData\Local\Temp\ccpggl3x.s 			page 10


  68              		.cfi_startproc
  69              		@ args = 0, pretend = 0, frame = 0
  70              		@ frame_needed = 0, uses_anonymous_args = 0
  71 0000 08B5     		push	{r3, lr}
  72              		.cfi_def_cfa_offset 8
  73              		.cfi_offset 3, -8
  74              		.cfi_offset 14, -4
  57:SDI12.c       ****     isr_SDI12_StartEx(isr_SDI12_data); 
  75              		.loc 1 57 0
  76 0002 FFF7FEFF 		bl	SDI12_UART_Start
  77              	.LVL2:
  58:SDI12.c       **** }
  78              		.loc 1 58 0
  79 0006 0248     		ldr	r0, .L8
  80 0008 FFF7FEFF 		bl	isr_SDI12_StartEx
  81              	.LVL3:
  82 000c 08BD     		pop	{r3, pc}
  83              	.L9:
  84 000e 00BF     		.align	2
  85              	.L8:
  86 0010 00000000 		.word	isr_SDI12_data
  87              		.cfi_endproc
  88              	.LFE64:
  89              		.size	SDI12_start, .-SDI12_start
  90              		.section	.text.SDI12_stop,"ax",%progbits
  91              		.align	2
  92              		.global	SDI12_stop
  93              		.thumb
  94              		.thumb_func
  95              		.type	SDI12_stop, %function
  96              	SDI12_stop:
  97              	.LFB65:
  61:SDI12.c       ****     isr_SDI12_Stop(); 
  98              		.loc 1 61 0
  99              		.cfi_startproc
 100              		@ args = 0, pretend = 0, frame = 0
 101              		@ frame_needed = 0, uses_anonymous_args = 0
 102 0000 08B5     		push	{r3, lr}
 103              		.cfi_def_cfa_offset 8
 104              		.cfi_offset 3, -8
 105              		.cfi_offset 14, -4
  62:SDI12.c       ****     SDI12_UART_Stop();
 106              		.loc 1 62 0
 107 0002 FFF7FEFF 		bl	isr_SDI12_Stop
 108              	.LVL4:
  63:SDI12.c       **** }
 109              		.loc 1 63 0
 110 0006 FFF7FEFF 		bl	SDI12_UART_Stop
 111              	.LVL5:
 112 000a 08BD     		pop	{r3, pc}
 113              		.cfi_endproc
 114              	.LFE65:
 115              		.size	SDI12_stop, .-SDI12_stop
 116              		.section	.text.SDI12_uart_clear_string,"ax",%progbits
 117              		.align	2
 118              		.global	SDI12_uart_clear_string
 119              		.thumb
ARM GAS  C:\Users\mame\AppData\Local\Temp\ccpggl3x.s 			page 11


 120              		.thumb_func
 121              		.type	SDI12_uart_clear_string, %function
 122              	SDI12_uart_clear_string:
 123              	.LFB66:
  69:SDI12.c       ****     SDI12_UART_ClearRxBuffer();
 124              		.loc 1 69 0
 125              		.cfi_startproc
 126              		@ args = 0, pretend = 0, frame = 0
 127              		@ frame_needed = 0, uses_anonymous_args = 0
 128 0000 10B5     		push	{r4, lr}
 129              		.cfi_def_cfa_offset 8
 130              		.cfi_offset 4, -8
 131              		.cfi_offset 14, -4
  70:SDI12.c       ****     memset(SDI12_uart_buf, '\0', sizeof(SDI12_uart_buf));
 132              		.loc 1 70 0
 133 0002 FFF7FEFF 		bl	SDI12_UART_ClearRxBuffer
 134              	.LVL6:
  71:SDI12.c       ****     SDI12_buf_idx = 0u;
 135              		.loc 1 71 0
 136 0006 054C     		ldr	r4, .L14
 137 0008 40F20112 		movw	r2, #257
 138 000c 0021     		movs	r1, #0
 139 000e 201D     		adds	r0, r4, #4
 140 0010 FFF7FEFF 		bl	memset
 141              	.LVL7:
  72:SDI12.c       **** }
 142              		.loc 1 72 0
 143 0014 0023     		movs	r3, #0
 144 0016 2370     		strb	r3, [r4]
 145 0018 10BD     		pop	{r4, pc}
 146              	.L15:
 147 001a 00BF     		.align	2
 148              	.L14:
 149 001c 00000000 		.word	.LANCHOR0
 150              		.cfi_endproc
 151              	.LFE66:
 152              		.size	SDI12_uart_clear_string, .-SDI12_uart_clear_string
 153              		.section	.text.sensors_uart_get_string,"ax",%progbits
 154              		.align	2
 155              		.global	sensors_uart_get_string
 156              		.thumb
 157              		.thumb_func
 158              		.type	sensors_uart_get_string, %function
 159              	sensors_uart_get_string:
 160              	.LFB67:
  75:SDI12.c       ****     return SDI12_uart_buf; 
 161              		.loc 1 75 0
 162              		.cfi_startproc
 163              		@ args = 0, pretend = 0, frame = 0
 164              		@ frame_needed = 0, uses_anonymous_args = 0
 165              		@ link register save eliminated.
  77:SDI12.c       **** 
 166              		.loc 1 77 0
 167 0000 0048     		ldr	r0, .L17
 168 0002 7047     		bx	lr
 169              	.L18:
 170              		.align	2
ARM GAS  C:\Users\mame\AppData\Local\Temp\ccpggl3x.s 			page 12


 171              	.L17:
 172 0004 04000000 		.word	.LANCHOR0+4
 173              		.cfi_endproc
 174              	.LFE67:
 175              		.size	sensors_uart_get_string, .-sensors_uart_get_string
 176              		.section	.text.SDI12_send_command,"ax",%progbits
 177              		.align	2
 178              		.global	SDI12_send_command
 179              		.thumb
 180              		.thumb_func
 181              		.type	SDI12_send_command, %function
 182              	SDI12_send_command:
 183              	.LFB68:
  88:SDI12.c       ****     // Wake up the sensors
 184              		.loc 1 88 0
 185              		.cfi_startproc
 186              		@ args = 0, pretend = 0, frame = 0
 187              		@ frame_needed = 0, uses_anonymous_args = 0
 188              	.LVL8:
 189 0000 10B5     		push	{r4, lr}
 190              		.cfi_def_cfa_offset 8
 191              		.cfi_offset 4, -8
 192              		.cfi_offset 14, -4
 193 0002 0446     		mov	r4, r0
  91:SDI12.c       ****     CyDelayUs(12000u);  // 12 milliseconds = 12 x 10^3 microseconds
 194              		.loc 1 91 0
 195 0004 0120     		movs	r0, #1
 196              	.LVL9:
 197 0006 FFF7FEFF 		bl	SDI12_control_reg_Write
 198              	.LVL10:
  92:SDI12.c       **** 
 199              		.loc 1 92 0
 200 000a 42F6E060 		movw	r0, #12000
 201 000e FFF7FEFF 		bl	CyDelayUs
 202              	.LVL11:
  95:SDI12.c       ****     CyDelayUs(8400u);   // 8.4 milliseconds = 8.4 x 10^3 microseconds
 203              		.loc 1 95 0
 204 0012 0020     		movs	r0, #0
 205 0014 FFF7FEFF 		bl	SDI12_control_reg_Write
 206              	.LVL12:
  96:SDI12.c       ****         
 207              		.loc 1 96 0
 208 0018 42F2D000 		movw	r0, #8400
 209 001c FFF7FEFF 		bl	CyDelayUs
 210              	.LVL13:
  99:SDI12.c       **** }
 211              		.loc 1 99 0
 212 0020 2046     		mov	r0, r4
 213 0022 FFF7FEFF 		bl	SDI12_UART_PutString
 214              	.LVL14:
 215 0026 10BD     		pop	{r4, pc}
 216              		.cfi_endproc
 217              	.LFE68:
 218              		.size	SDI12_send_command, .-SDI12_send_command
 219              		.section	.text.SDI12_is_active,"ax",%progbits
 220              		.align	2
 221              		.global	SDI12_is_active
ARM GAS  C:\Users\mame\AppData\Local\Temp\ccpggl3x.s 			page 13


 222              		.thumb
 223              		.thumb_func
 224              		.type	SDI12_is_active, %function
 225              	SDI12_is_active:
 226              	.LFB69:
 109:SDI12.c       ****     /* 1. Request if SDI12 sensor is active */
 227              		.loc 1 109 0
 228              		.cfi_startproc
 229              		@ args = 0, pretend = 0, frame = 0
 230              		@ frame_needed = 0, uses_anonymous_args = 0
 231              	.LVL15:
 232 0000 70B5     		push	{r4, r5, r6, lr}
 233              		.cfi_def_cfa_offset 16
 234              		.cfi_offset 4, -16
 235              		.cfi_offset 5, -12
 236              		.cfi_offset 6, -8
 237              		.cfi_offset 14, -4
 238 0002 82B0     		sub	sp, sp, #8
 239              		.cfi_def_cfa_offset 24
 240 0004 0646     		mov	r6, r0
 111:SDI12.c       ****     
 241              		.loc 1 111 0
 242 0006 144C     		ldr	r4, .L25
 243 0008 04F58475 		add	r5, r4, #264
 244 000c 2846     		mov	r0, r5
 245              	.LVL16:
 246 000e FFF7FEFF 		bl	clear_str
 247              	.LVL17:
 114:SDI12.c       ****     SDI12_uart_clear_string();
 248              		.loc 1 114 0
 249 0012 3268     		ldr	r2, [r6]
 250 0014 114E     		ldr	r6, .L25+4
 251              	.LVL18:
 252 0016 0096     		str	r6, [sp]
 253 0018 114B     		ldr	r3, .L25+8
 254 001a 1249     		ldr	r1, .L25+12
 255 001c 2846     		mov	r0, r5
 256 001e FFF7FEFF 		bl	sprintf
 257              	.LVL19:
 115:SDI12.c       ****     
 258              		.loc 1 115 0
 259 0022 FFF7FEFF 		bl	SDI12_uart_clear_string
 260              	.LVL20:
 118:SDI12.c       ****     
 261              		.loc 1 118 0
 262 0026 2846     		mov	r0, r5
 263 0028 FFF7FEFF 		bl	SDI12_send_command
 264              	.LVL21:
 122:SDI12.c       ****     
 265              		.loc 1 122 0
 266 002c 4FF47A70 		mov	r0, #1000
 267 0030 FFF7FEFF 		bl	CyDelay
 268              	.LVL22:
 126:SDI12.c       ****     if (strextract(SDI12_uart_buf, value_str, "!" ,"\r\n")) {
 269              		.loc 1 126 0
 270 0034 04F5B675 		add	r5, r4, #364
 271 0038 2846     		mov	r0, r5
ARM GAS  C:\Users\mame\AppData\Local\Temp\ccpggl3x.s 			page 14


 272 003a FFF7FEFF 		bl	clear_str
 273              	.LVL23:
 127:SDI12.c       ****         // If "\r\n" is in the response, the sensor is active
 274              		.loc 1 127 0
 275 003e 0A4B     		ldr	r3, .L25+16
 276 0040 3246     		mov	r2, r6
 277 0042 2946     		mov	r1, r5
 278 0044 201D     		adds	r0, r4, #4
 279 0046 FFF7FEFF 		bl	strextract
 280              	.LVL24:
 281 004a 08B1     		cbz	r0, .L23
 129:SDI12.c       ****     }
 282              		.loc 1 129 0
 283 004c 0120     		movs	r0, #1
 284 004e 00E0     		b	.L22
 285              	.L23:
 132:SDI12.c       **** }
 286              		.loc 1 132 0
 287 0050 0020     		movs	r0, #0
 288              	.L22:
 133:SDI12.c       **** 
 289              		.loc 1 133 0
 290 0052 02B0     		add	sp, sp, #8
 291              		.cfi_def_cfa_offset 16
 292              		@ sp needed
 293 0054 70BD     		pop	{r4, r5, r6, pc}
 294              	.L26:
 295 0056 00BF     		.align	2
 296              	.L25:
 297 0058 00000000 		.word	.LANCHOR0
 298 005c 0C000000 		.word	.LC2
 299 0060 00000000 		.word	.LC0
 300 0064 04000000 		.word	.LC1
 301 0068 10000000 		.word	.LC3
 302              		.cfi_endproc
 303              	.LFE69:
 304              		.size	SDI12_is_active, .-SDI12_is_active
 305              		.section	.text.SDI12_change_address,"ax",%progbits
 306              		.align	2
 307              		.global	SDI12_change_address
 308              		.thumb
 309              		.thumb_func
 310              		.type	SDI12_change_address, %function
 311              	SDI12_change_address:
 312              	.LFB70:
 143:SDI12.c       ****  
 313              		.loc 1 143 0
 314              		.cfi_startproc
 315              		@ args = 0, pretend = 0, frame = 0
 316              		@ frame_needed = 0, uses_anonymous_args = 0
 317              	.LVL25:
 318 0000 F0B5     		push	{r4, r5, r6, r7, lr}
 319              		.cfi_def_cfa_offset 20
 320              		.cfi_offset 4, -20
 321              		.cfi_offset 5, -16
 322              		.cfi_offset 6, -12
 323              		.cfi_offset 7, -8
ARM GAS  C:\Users\mame\AppData\Local\Temp\ccpggl3x.s 			page 15


 324              		.cfi_offset 14, -4
 325 0002 83B0     		sub	sp, sp, #12
 326              		.cfi_def_cfa_offset 32
 327 0004 0546     		mov	r5, r0
 328 0006 0C46     		mov	r4, r1
 146:SDI12.c       ****     sprintf(command,"%s%s%s%s",(*sensor).address,CHANGE_ADDR,new_address,"!");
 329              		.loc 1 146 0
 330 0008 1E4E     		ldr	r6, .L33
 331 000a 06F58477 		add	r7, r6, #264
 332 000e 3846     		mov	r0, r7
 333              	.LVL26:
 334 0010 FFF7FEFF 		bl	clear_str
 335              	.LVL27:
 147:SDI12.c       ****     
 336              		.loc 1 147 0
 337 0014 1C4B     		ldr	r3, .L33+4
 338 0016 0193     		str	r3, [sp, #4]
 339 0018 0094     		str	r4, [sp]
 340 001a 1C4B     		ldr	r3, .L33+8
 341 001c 2A68     		ldr	r2, [r5]
 342 001e 1C49     		ldr	r1, .L33+12
 343 0020 3846     		mov	r0, r7
 344 0022 FFF7FEFF 		bl	sprintf
 345              	.LVL28:
 149:SDI12.c       ****     SDI12_send_command(command);    
 346              		.loc 1 149 0
 347 0026 FFF7FEFF 		bl	SDI12_uart_clear_string
 348              	.LVL29:
 150:SDI12.c       ****         
 349              		.loc 1 150 0
 350 002a 3846     		mov	r0, r7
 351 002c FFF7FEFF 		bl	SDI12_send_command
 352              	.LVL30:
 154:SDI12.c       ****     sprintf(value_str, "%s\r\n", new_address);
 353              		.loc 1 154 0
 354 0030 06F5B677 		add	r7, r6, #364
 355 0034 3846     		mov	r0, r7
 356 0036 FFF7FEFF 		bl	clear_str
 357              	.LVL31:
 155:SDI12.c       ****     for (i = 0; i < 200; i++) { 
 358              		.loc 1 155 0
 359 003a 2246     		mov	r2, r4
 360 003c 1549     		ldr	r1, .L33+16
 361 003e 3846     		mov	r0, r7
 362 0040 FFF7FEFF 		bl	sprintf
 363              	.LVL32:
 156:SDI12.c       ****         CyDelay(5u);
 364              		.loc 1 156 0
 365 0044 0023     		movs	r3, #0
 366 0046 86F8D031 		strb	r3, [r6, #464]
 367 004a 12E0     		b	.L28
 368              	.L31:
 157:SDI12.c       ****         if ( strstr(SDI12_uart_buf, value_str) ) {
 369              		.loc 1 157 0
 370 004c 0520     		movs	r0, #5
 371 004e FFF7FEFF 		bl	CyDelay
 372              	.LVL33:
ARM GAS  C:\Users\mame\AppData\Local\Temp\ccpggl3x.s 			page 16


 158:SDI12.c       ****             (*sensor).address = new_address;
 373              		.loc 1 158 0
 374 0052 0C48     		ldr	r0, .L33
 375 0054 00F5B671 		add	r1, r0, #364
 376 0058 0430     		adds	r0, r0, #4
 377 005a FFF7FEFF 		bl	strstr
 378              	.LVL34:
 379 005e 10B1     		cbz	r0, .L29
 159:SDI12.c       ****             return 1u;
 380              		.loc 1 159 0
 381 0060 2C60     		str	r4, [r5]
 160:SDI12.c       ****         }
 382              		.loc 1 160 0
 383 0062 0120     		movs	r0, #1
 384 0064 0BE0     		b	.L30
 385              	.L29:
 156:SDI12.c       ****         CyDelay(5u);
 386              		.loc 1 156 0 discriminator 2
 387 0066 074A     		ldr	r2, .L33
 388 0068 92F8D031 		ldrb	r3, [r2, #464]	@ zero_extendqisi2
 389 006c 0133     		adds	r3, r3, #1
 390 006e 82F8D031 		strb	r3, [r2, #464]
 391              	.L28:
 156:SDI12.c       ****         CyDelay(5u);
 392              		.loc 1 156 0 is_stmt 0 discriminator 1
 393 0072 044B     		ldr	r3, .L33
 394 0074 93F8D031 		ldrb	r3, [r3, #464]	@ zero_extendqisi2
 395 0078 C72B     		cmp	r3, #199
 396 007a E7D9     		bls	.L31
 164:SDI12.c       **** }
 397              		.loc 1 164 0 is_stmt 1
 398 007c 0020     		movs	r0, #0
 399              	.L30:
 165:SDI12.c       **** 
 400              		.loc 1 165 0
 401 007e 03B0     		add	sp, sp, #12
 402              		.cfi_def_cfa_offset 20
 403              		@ sp needed
 404 0080 F0BD     		pop	{r4, r5, r6, r7, pc}
 405              	.LVL35:
 406              	.L34:
 407 0082 00BF     		.align	2
 408              	.L33:
 409 0084 00000000 		.word	.LANCHOR0
 410 0088 0C000000 		.word	.LC2
 411 008c 14000000 		.word	.LC4
 412 0090 18000000 		.word	.LC5
 413 0094 24000000 		.word	.LC6
 414              		.cfi_endproc
 415              	.LFE70:
 416              		.size	SDI12_change_address, .-SDI12_change_address
 417              		.global	__aeabi_d2uiz
 418              		.global	__aeabi_d2f
 419              		.section	.text.SDI12_take_measurement,"ax",%progbits
 420              		.align	2
 421              		.global	SDI12_take_measurement
 422              		.thumb
ARM GAS  C:\Users\mame\AppData\Local\Temp\ccpggl3x.s 			page 17


 423              		.thumb_func
 424              		.type	SDI12_take_measurement, %function
 425              	SDI12_take_measurement:
 426              	.LFB71:
 175:SDI12.c       ****         
 427              		.loc 1 175 0
 428              		.cfi_startproc
 429              		@ args = 0, pretend = 0, frame = 0
 430              		@ frame_needed = 0, uses_anonymous_args = 0
 431              	.LVL36:
 432 0000 F0B5     		push	{r4, r5, r6, r7, lr}
 433              		.cfi_def_cfa_offset 20
 434              		.cfi_offset 4, -20
 435              		.cfi_offset 5, -16
 436              		.cfi_offset 6, -12
 437              		.cfi_offset 7, -8
 438              		.cfi_offset 14, -4
 439 0002 83B0     		sub	sp, sp, #12
 440              		.cfi_def_cfa_offset 32
 441 0004 0446     		mov	r4, r0
 178:SDI12.c       ****     sprintf(command,"%s%s%s",(*sensor).address,TAKE_MEASUREMENT,"!");
 442              		.loc 1 178 0
 443 0006 664D     		ldr	r5, .L49
 444 0008 05F58476 		add	r6, r5, #264
 445 000c 3046     		mov	r0, r6
 446              	.LVL37:
 447 000e FFF7FEFF 		bl	clear_str
 448              	.LVL38:
 179:SDI12.c       ****     
 449              		.loc 1 179 0
 450 0012 644B     		ldr	r3, .L49+4
 451 0014 0093     		str	r3, [sp]
 452 0016 644B     		ldr	r3, .L49+8
 453 0018 2268     		ldr	r2, [r4]
 454 001a 6449     		ldr	r1, .L49+12
 455 001c 3046     		mov	r0, r6
 456 001e FFF7FEFF 		bl	sprintf
 457              	.LVL39:
 181:SDI12.c       ****     SDI12_send_command(command);
 458              		.loc 1 181 0
 459 0022 FFF7FEFF 		bl	SDI12_uart_clear_string
 460              	.LVL40:
 182:SDI12.c       ****     
 461              		.loc 1 182 0
 462 0026 3046     		mov	r0, r6
 463 0028 FFF7FEFF 		bl	SDI12_send_command
 464              	.LVL41:
 190:SDI12.c       ****     clear_str(delay_str);
 465              		.loc 1 190 0
 466 002c 05F5B670 		add	r0, r5, #364
 467 0030 FFF7FEFF 		bl	clear_str
 468              	.LVL42:
 191:SDI12.c       ****     
 469              		.loc 1 191 0
 470 0034 05F5EA70 		add	r0, r5, #468
 471 0038 FFF7FEFF 		bl	clear_str
 472              	.LVL43:
ARM GAS  C:\Users\mame\AppData\Local\Temp\ccpggl3x.s 			page 18


 195:SDI12.c       ****         CyDelay(5u);
 473              		.loc 1 195 0
 474 003c 0023     		movs	r3, #0
 475 003e 85F8D031 		strb	r3, [r5, #464]
 476 0042 11E0     		b	.L36
 477              	.L38:
 196:SDI12.c       ****         if ( strextract(SDI12_uart_buf, value_str, "!","\r\n") ) {
 478              		.loc 1 196 0
 479 0044 0520     		movs	r0, #5
 480 0046 FFF7FEFF 		bl	CyDelay
 481              	.LVL44:
 197:SDI12.c       ****             break;
 482              		.loc 1 197 0
 483 004a 5548     		ldr	r0, .L49
 484 004c 584B     		ldr	r3, .L49+16
 485 004e 554A     		ldr	r2, .L49+4
 486 0050 00F5B671 		add	r1, r0, #364
 487 0054 0430     		adds	r0, r0, #4
 488 0056 FFF7FEFF 		bl	strextract
 489              	.LVL45:
 490 005a 50B9     		cbnz	r0, .L37
 195:SDI12.c       ****         CyDelay(5u);
 491              		.loc 1 195 0 discriminator 2
 492 005c 504A     		ldr	r2, .L49
 493 005e 92F8D031 		ldrb	r3, [r2, #464]	@ zero_extendqisi2
 494 0062 0133     		adds	r3, r3, #1
 495 0064 82F8D031 		strb	r3, [r2, #464]
 496              	.L36:
 195:SDI12.c       ****         CyDelay(5u);
 497              		.loc 1 195 0 is_stmt 0 discriminator 1
 498 0068 4D4B     		ldr	r3, .L49
 499 006a 93F8D031 		ldrb	r3, [r3, #464]	@ zero_extendqisi2
 500 006e C72B     		cmp	r3, #199
 501 0070 E8D9     		bls	.L38
 502              	.L37:
 212:SDI12.c       ****     ms_delay = ( (uint32) strtod(delay_str,(char**) NULL) ) * 1000u;
 503              		.loc 1 212 0 is_stmt 1
 504 0072 2068     		ldr	r0, [r4]
 505 0074 FFF7FEFF 		bl	strlen
 506              	.LVL46:
 507 0078 494D     		ldr	r5, .L49
 508 007a 05F5B677 		add	r7, r5, #364
 509 007e 05F5EA76 		add	r6, r5, #468
 510 0082 0322     		movs	r2, #3
 511 0084 3918     		adds	r1, r7, r0
 512 0086 3046     		mov	r0, r6
 513 0088 FFF7FEFF 		bl	strncpy
 514              	.LVL47:
 213:SDI12.c       ****     CyDelay(ms_delay);
 515              		.loc 1 213 0
 516 008c 0021     		movs	r1, #0
 517 008e 3046     		mov	r0, r6
 518 0090 FFF7FEFF 		bl	strtod
 519              	.LVL48:
 520 0094 FFF7FEFF 		bl	__aeabi_d2uiz
 521              	.LVL49:
 522 0098 4FF47A73 		mov	r3, #1000
ARM GAS  C:\Users\mame\AppData\Local\Temp\ccpggl3x.s 			page 19


 523 009c 03FB00F0 		mul	r0, r3, r0
 524 00a0 C5F8E001 		str	r0, [r5, #480]
 214:SDI12.c       ****     
 525              		.loc 1 214 0
 526 00a4 FFF7FEFF 		bl	CyDelay
 527              	.LVL50:
 217:SDI12.c       ****     clear_str(value_str);
 528              		.loc 1 217 0
 529 00a8 05F58476 		add	r6, r5, #264
 530 00ac 3046     		mov	r0, r6
 531 00ae FFF7FEFF 		bl	clear_str
 532              	.LVL51:
 218:SDI12.c       ****     sprintf(command,"%s%s%s",(*sensor).address,READ_MEASUREMENT,"!");   
 533              		.loc 1 218 0
 534 00b2 3846     		mov	r0, r7
 535 00b4 FFF7FEFF 		bl	clear_str
 536              	.LVL52:
 219:SDI12.c       ****     
 537              		.loc 1 219 0
 538 00b8 3A4B     		ldr	r3, .L49+4
 539 00ba 0093     		str	r3, [sp]
 540 00bc 3D4B     		ldr	r3, .L49+20
 541 00be 2268     		ldr	r2, [r4]
 542 00c0 3A49     		ldr	r1, .L49+12
 543 00c2 3046     		mov	r0, r6
 544 00c4 FFF7FEFF 		bl	sprintf
 545              	.LVL53:
 221:SDI12.c       ****     SDI12_send_command(command);
 546              		.loc 1 221 0
 547 00c8 FFF7FEFF 		bl	SDI12_uart_clear_string
 548              	.LVL54:
 222:SDI12.c       ****     
 549              		.loc 1 222 0
 550 00cc 3046     		mov	r0, r6
 551 00ce FFF7FEFF 		bl	SDI12_send_command
 552              	.LVL55:
 225:SDI12.c       ****         CyDelay(5u);
 553              		.loc 1 225 0
 554 00d2 0023     		movs	r3, #0
 555 00d4 85F8D031 		strb	r3, [r5, #464]
 556 00d8 11E0     		b	.L39
 557              	.L41:
 226:SDI12.c       ****         
 558              		.loc 1 226 0
 559 00da 0520     		movs	r0, #5
 560 00dc FFF7FEFF 		bl	CyDelay
 561              	.LVL56:
 230:SDI12.c       ****             break;
 562              		.loc 1 230 0
 563 00e0 2F48     		ldr	r0, .L49
 564 00e2 334B     		ldr	r3, .L49+16
 565 00e4 2F4A     		ldr	r2, .L49+4
 566 00e6 00F5B671 		add	r1, r0, #364
 567 00ea 0430     		adds	r0, r0, #4
 568 00ec FFF7FEFF 		bl	strextract
 569              	.LVL57:
 570 00f0 50B9     		cbnz	r0, .L40
ARM GAS  C:\Users\mame\AppData\Local\Temp\ccpggl3x.s 			page 20


 225:SDI12.c       ****         CyDelay(5u);
 571              		.loc 1 225 0 discriminator 2
 572 00f2 2B4A     		ldr	r2, .L49
 573 00f4 92F8D031 		ldrb	r3, [r2, #464]	@ zero_extendqisi2
 574 00f8 0133     		adds	r3, r3, #1
 575 00fa 82F8D031 		strb	r3, [r2, #464]
 576              	.L39:
 225:SDI12.c       ****         CyDelay(5u);
 577              		.loc 1 225 0 is_stmt 0 discriminator 1
 578 00fe 284B     		ldr	r3, .L49
 579 0100 93F8D031 		ldrb	r3, [r3, #464]	@ zero_extendqisi2
 580 0104 C72B     		cmp	r3, #199
 581 0106 E8D9     		bls	.L41
 582              	.L40:
 239:SDI12.c       ****     if (sign == NULL) {
 583              		.loc 1 239 0 is_stmt 1
 584 0108 2B21     		movs	r1, #43
 585 010a 2B48     		ldr	r0, .L49+24
 586 010c FFF7FEFF 		bl	strchr
 587              	.LVL58:
 588 0110 2A4B     		ldr	r3, .L49+28
 589 0112 1860     		str	r0, [r3]
 240:SDI12.c       ****         // If there is no + sign, check for "-"
 590              		.loc 1 240 0
 591 0114 E8B9     		cbnz	r0, .L42
 242:SDI12.c       ****         
 592              		.loc 1 242 0
 593 0116 2D21     		movs	r1, #45
 594 0118 2748     		ldr	r0, .L49+24
 595 011a FFF7FEFF 		bl	strchr
 596              	.LVL59:
 597 011e 274B     		ldr	r3, .L49+28
 598 0120 1860     		str	r0, [r3]
 246:SDI12.c       ****             for (i = 0; i < (*sensor).nvars; i++) {
 599              		.loc 1 246 0
 600 0122 B0B9     		cbnz	r0, .L42
 247:SDI12.c       ****                 (*sensor).values[i] = -9999.0f;
 601              		.loc 1 247 0
 602 0124 0022     		movs	r2, #0
 603 0126 1E4B     		ldr	r3, .L49
 604 0128 83F8D021 		strb	r2, [r3, #464]
 605 012c 09E0     		b	.L43
 606              	.L44:
 248:SDI12.c       ****             }
 607              		.loc 1 248 0 discriminator 3
 608 012e A268     		ldr	r2, [r4, #8]
 609 0130 2349     		ldr	r1, .L49+32
 610 0132 42F82310 		str	r1, [r2, r3, lsl #2]	@ float
 247:SDI12.c       ****                 (*sensor).values[i] = -9999.0f;
 611              		.loc 1 247 0 discriminator 3
 612 0136 1A4A     		ldr	r2, .L49
 613 0138 92F8D031 		ldrb	r3, [r2, #464]	@ zero_extendqisi2
 614 013c 0133     		adds	r3, r3, #1
 615 013e 82F8D031 		strb	r3, [r2, #464]
 616              	.L43:
 247:SDI12.c       ****                 (*sensor).values[i] = -9999.0f;
 617              		.loc 1 247 0 is_stmt 0 discriminator 1
ARM GAS  C:\Users\mame\AppData\Local\Temp\ccpggl3x.s 			page 21


 618 0142 227B     		ldrb	r2, [r4, #12]	@ zero_extendqisi2
 619 0144 164B     		ldr	r3, .L49
 620 0146 93F8D031 		ldrb	r3, [r3, #464]	@ zero_extendqisi2
 621 014a 9A42     		cmp	r2, r3
 622 014c EFD8     		bhi	.L44
 250:SDI12.c       ****         }
 623              		.loc 1 250 0 is_stmt 1
 624 014e 0020     		movs	r0, #0
 625 0150 23E0     		b	.L45
 626              	.L42:
 256:SDI12.c       ****     
 627              		.loc 1 256 0
 628 0152 2068     		ldr	r0, [r4]
 629 0154 FFF7FEFF 		bl	strlen
 630              	.LVL60:
 631 0158 114A     		ldr	r2, .L49
 632 015a 02F5B673 		add	r3, r2, #364
 633 015e 1844     		add	r0, r0, r3
 634 0160 184B     		ldr	r3, .L49+36
 635 0162 1860     		str	r0, [r3]
 259:SDI12.c       ****         (*sensor).values[i] = (float) strtod(ptr_end, &ptr_end);
 636              		.loc 1 259 0
 637 0164 0023     		movs	r3, #0
 638 0166 82F8D031 		strb	r3, [r2, #464]
 639 016a 0FE0     		b	.L46
 640              	.L47:
 260:SDI12.c       ****     }
 641              		.loc 1 260 0 discriminator 3
 642 016c A668     		ldr	r6, [r4, #8]
 643 016e 154B     		ldr	r3, .L49+36
 644 0170 1946     		mov	r1, r3
 645 0172 1868     		ldr	r0, [r3]
 646 0174 FFF7FEFF 		bl	strtod
 647              	.LVL61:
 648 0178 FFF7FEFF 		bl	__aeabi_d2f
 649              	.LVL62:
 650 017c 46F82500 		str	r0, [r6, r5, lsl #2]	@ float
 259:SDI12.c       ****         (*sensor).values[i] = (float) strtod(ptr_end, &ptr_end);
 651              		.loc 1 259 0 discriminator 3
 652 0180 074A     		ldr	r2, .L49
 653 0182 92F8D031 		ldrb	r3, [r2, #464]	@ zero_extendqisi2
 654 0186 0133     		adds	r3, r3, #1
 655 0188 82F8D031 		strb	r3, [r2, #464]
 656              	.L46:
 259:SDI12.c       ****         (*sensor).values[i] = (float) strtod(ptr_end, &ptr_end);
 657              		.loc 1 259 0 is_stmt 0 discriminator 1
 658 018c 237B     		ldrb	r3, [r4, #12]	@ zero_extendqisi2
 659 018e 044A     		ldr	r2, .L49
 660 0190 92F8D051 		ldrb	r5, [r2, #464]	@ zero_extendqisi2
 661 0194 AB42     		cmp	r3, r5
 662 0196 E9D8     		bhi	.L47
 263:SDI12.c       ****     
 663              		.loc 1 263 0 is_stmt 1
 664 0198 0120     		movs	r0, #1
 665              	.L45:
 265:SDI12.c       **** 
 666              		.loc 1 265 0
ARM GAS  C:\Users\mame\AppData\Local\Temp\ccpggl3x.s 			page 22


 667 019a 03B0     		add	sp, sp, #12
 668              		.cfi_def_cfa_offset 20
 669              		@ sp needed
 670 019c F0BD     		pop	{r4, r5, r6, r7, pc}
 671              	.LVL63:
 672              	.L50:
 673 019e 00BF     		.align	2
 674              	.L49:
 675 01a0 00000000 		.word	.LANCHOR0
 676 01a4 0C000000 		.word	.LC2
 677 01a8 2C000000 		.word	.LC7
 678 01ac 04000000 		.word	.LC1
 679 01b0 10000000 		.word	.LC3
 680 01b4 30000000 		.word	.LC8
 681 01b8 6C010000 		.word	.LANCHOR0+364
 682 01bc 00000000 		.word	sign
 683 01c0 003C1CC6 		.word	-971228160
 684 01c4 00000000 		.word	ptr_end
 685              		.cfi_endproc
 686              	.LFE71:
 687              		.size	SDI12_take_measurement, .-SDI12_take_measurement
 688              		.section	.text.SDI12_take_concurrent_measurement,"ax",%progbits
 689              		.align	2
 690              		.global	SDI12_take_concurrent_measurement
 691              		.thumb
 692              		.thumb_func
 693              		.type	SDI12_take_concurrent_measurement, %function
 694              	SDI12_take_concurrent_measurement:
 695              	.LFB72:
 274:SDI12.c       ****     /* TODO */
 696              		.loc 1 274 0
 697              		.cfi_startproc
 698              		@ args = 0, pretend = 0, frame = 0
 699              		@ frame_needed = 0, uses_anonymous_args = 0
 700              	.LVL64:
 701 0000 08B5     		push	{r3, lr}
 702              		.cfi_def_cfa_offset 8
 703              		.cfi_offset 3, -8
 704              		.cfi_offset 14, -4
 284:SDI12.c       **** }
 705              		.loc 1 284 0
 706 0002 FFF7FEFF 		bl	SDI12_is_active
 707              	.LVL65:
 285:SDI12.c       **** 
 708              		.loc 1 285 0
 709 0006 08BD     		pop	{r3, pc}
 710              		.cfi_endproc
 711              	.LFE72:
 712              		.size	SDI12_take_concurrent_measurement, .-SDI12_take_concurrent_measurement
 713              		.section	.text.SDI12_info,"ax",%progbits
 714              		.align	2
 715              		.global	SDI12_info
 716              		.thumb
 717              		.thumb_func
 718              		.type	SDI12_info, %function
 719              	SDI12_info:
 720              	.LFB73:
ARM GAS  C:\Users\mame\AppData\Local\Temp\ccpggl3x.s 			page 23


 294:SDI12.c       **** 
 721              		.loc 1 294 0
 722              		.cfi_startproc
 723              		@ args = 0, pretend = 0, frame = 0
 724              		@ frame_needed = 0, uses_anonymous_args = 0
 725              	.LVL66:
 726 0000 F0B5     		push	{r4, r5, r6, r7, lr}
 727              		.cfi_def_cfa_offset 20
 728              		.cfi_offset 4, -20
 729              		.cfi_offset 5, -16
 730              		.cfi_offset 6, -12
 731              		.cfi_offset 7, -8
 732              		.cfi_offset 14, -4
 733 0002 83B0     		sub	sp, sp, #12
 734              		.cfi_def_cfa_offset 32
 735 0004 0546     		mov	r5, r0
 297:SDI12.c       ****     sprintf(command,"%s%s%s",(*sensor).address,INFO,"!");
 736              		.loc 1 297 0
 737 0006 324C     		ldr	r4, .L59
 738 0008 04F58476 		add	r6, r4, #264
 739 000c 3046     		mov	r0, r6
 740              	.LVL67:
 741 000e FFF7FEFF 		bl	clear_str
 742              	.LVL68:
 298:SDI12.c       ****     
 743              		.loc 1 298 0
 744 0012 304B     		ldr	r3, .L59+4
 745 0014 0093     		str	r3, [sp]
 746 0016 304B     		ldr	r3, .L59+8
 747 0018 2A68     		ldr	r2, [r5]
 748 001a 3049     		ldr	r1, .L59+12
 749 001c 3046     		mov	r0, r6
 750 001e FFF7FEFF 		bl	sprintf
 751              	.LVL69:
 300:SDI12.c       ****     SDI12_send_command(command);    
 752              		.loc 1 300 0
 753 0022 FFF7FEFF 		bl	SDI12_uart_clear_string
 754              	.LVL70:
 301:SDI12.c       **** 
 755              		.loc 1 301 0
 756 0026 3046     		mov	r0, r6
 757 0028 FFF7FEFF 		bl	SDI12_send_command
 758              	.LVL71:
 303:SDI12.c       ****     
 759              		.loc 1 303 0
 760 002c 04F5B670 		add	r0, r4, #364
 761 0030 FFF7FEFF 		bl	clear_str
 762              	.LVL72:
 307:SDI12.c       ****         CyDelay(5u);
 763              		.loc 1 307 0
 764 0034 0023     		movs	r3, #0
 765 0036 84F8D031 		strb	r3, [r4, #464]
 766 003a 41E0     		b	.L54
 767              	.L57:
 308:SDI12.c       ****         if (strextract(SDI12_uart_buf, value_str, "!" ,"\r\n")) {
 768              		.loc 1 308 0
 769 003c 0520     		movs	r0, #5
ARM GAS  C:\Users\mame\AppData\Local\Temp\ccpggl3x.s 			page 24


 770 003e FFF7FEFF 		bl	CyDelay
 771              	.LVL73:
 309:SDI12.c       ****         // If "\r\n" is in the response, then the sensor is active
 772              		.loc 1 309 0
 773 0042 2348     		ldr	r0, .L59
 774 0044 264B     		ldr	r3, .L59+16
 775 0046 234A     		ldr	r2, .L59+4
 776 0048 00F5B671 		add	r1, r0, #364
 777 004c 0430     		adds	r0, r0, #4
 778 004e FFF7FEFF 		bl	strextract
 779              	.LVL74:
 780 0052 78B3     		cbz	r0, .L55
 312:SDI12.c       ****             // Attempt to parse the information and store in "sensor"
 781              		.loc 1 312 0
 782 0054 234E     		ldr	r6, .L59+20
 783 0056 244C     		ldr	r4, .L59+24
 784 0058 3460     		str	r4, [r6]
 315:SDI12.c       ****             
 785              		.loc 1 315 0
 786 005a 2F46     		mov	r7, r5
 787 005c 57F80D0B 		ldr	r0, [r7], #13
 788 0060 FFF7FEFF 		bl	strlen
 789              	.LVL75:
 790 0064 0444     		add	r4, r4, r0
 791 0066 3460     		str	r4, [r6]
 318:SDI12.c       ****             ptr_end += 2;
 792              		.loc 1 318 0
 793 0068 0222     		movs	r2, #2
 794 006a 2146     		mov	r1, r4
 795 006c 3846     		mov	r0, r7
 796 006e FFF7FEFF 		bl	strncpy
 797              	.LVL76:
 319:SDI12.c       ****             
 798              		.loc 1 319 0
 799 0072 A11C     		adds	r1, r4, #2
 800 0074 3160     		str	r1, [r6]
 322:SDI12.c       ****             ptr_end += 8;
 801              		.loc 1 322 0
 802 0076 0822     		movs	r2, #8
 803 0078 05F11000 		add	r0, r5, #16
 804 007c FFF7FEFF 		bl	strncpy
 805              	.LVL77:
 323:SDI12.c       ****             
 806              		.loc 1 323 0
 807 0080 04F10A01 		add	r1, r4, #10
 808 0084 3160     		str	r1, [r6]
 326:SDI12.c       ****             ptr_end += 6;
 809              		.loc 1 326 0
 810 0086 0622     		movs	r2, #6
 811 0088 05F11900 		add	r0, r5, #25
 812 008c FFF7FEFF 		bl	strncpy
 813              	.LVL78:
 327:SDI12.c       ****             
 814              		.loc 1 327 0
 815 0090 04F11001 		add	r1, r4, #16
 816 0094 3160     		str	r1, [r6]
 330:SDI12.c       ****             ptr_end += 3;
ARM GAS  C:\Users\mame\AppData\Local\Temp\ccpggl3x.s 			page 25


 817              		.loc 1 330 0
 818 0096 0322     		movs	r2, #3
 819 0098 05F12000 		add	r0, r5, #32
 820 009c FFF7FEFF 		bl	strncpy
 821              	.LVL79:
 331:SDI12.c       ****             
 822              		.loc 1 331 0
 823 00a0 04F11301 		add	r1, r4, #19
 824 00a4 3160     		str	r1, [r6]
 334:SDI12.c       ****             
 825              		.loc 1 334 0
 826 00a6 0D22     		movs	r2, #13
 827 00a8 05F12400 		add	r0, r5, #36
 828 00ac FFF7FEFF 		bl	strncpy
 829              	.LVL80:
 337:SDI12.c       ****         }
 830              		.loc 1 337 0
 831 00b0 0120     		movs	r0, #1
 832 00b2 0BE0     		b	.L56
 833              	.L55:
 307:SDI12.c       ****         CyDelay(5u);
 834              		.loc 1 307 0 discriminator 2
 835 00b4 064A     		ldr	r2, .L59
 836 00b6 92F8D031 		ldrb	r3, [r2, #464]	@ zero_extendqisi2
 837 00ba 0133     		adds	r3, r3, #1
 838 00bc 82F8D031 		strb	r3, [r2, #464]
 839              	.L54:
 307:SDI12.c       ****         CyDelay(5u);
 840              		.loc 1 307 0 is_stmt 0 discriminator 1
 841 00c0 034B     		ldr	r3, .L59
 842 00c2 93F8D031 		ldrb	r3, [r3, #464]	@ zero_extendqisi2
 843 00c6 C72B     		cmp	r3, #199
 844 00c8 B8D9     		bls	.L57
 341:SDI12.c       **** }
 845              		.loc 1 341 0 is_stmt 1
 846 00ca 0020     		movs	r0, #0
 847              	.L56:
 342:SDI12.c       **** 
 848              		.loc 1 342 0
 849 00cc 03B0     		add	sp, sp, #12
 850              		.cfi_def_cfa_offset 20
 851              		@ sp needed
 852 00ce F0BD     		pop	{r4, r5, r6, r7, pc}
 853              	.LVL81:
 854              	.L60:
 855              		.align	2
 856              	.L59:
 857 00d0 00000000 		.word	.LANCHOR0
 858 00d4 0C000000 		.word	.LC2
 859 00d8 34000000 		.word	.LC9
 860 00dc 04000000 		.word	.LC1
 861 00e0 10000000 		.word	.LC3
 862 00e4 00000000 		.word	ptr_end
 863 00e8 6C010000 		.word	.LANCHOR0+364
 864              		.cfi_endproc
 865              	.LFE73:
 866              		.size	SDI12_info, .-SDI12_info
ARM GAS  C:\Users\mame\AppData\Local\Temp\ccpggl3x.s 			page 26


 867              		.global	__aeabi_f2d
 868              		.section	.text.zip_SDI12,"ax",%progbits
 869              		.align	2
 870              		.global	zip_SDI12
 871              		.thumb
 872              		.thumb_func
 873              		.type	zip_SDI12, %function
 874              	zip_SDI12:
 875              	.LFB74:
 344:SDI12.c       ****     char output[100] = {'\0'}; // For debugging
 876              		.loc 1 344 0
 877              		.cfi_startproc
 878              		@ args = 0, pretend = 0, frame = 104
 879              		@ frame_needed = 0, uses_anonymous_args = 0
 880              	.LVL82:
 881 0000 2DE9F043 		push	{r4, r5, r6, r7, r8, r9, lr}
 882              		.cfi_def_cfa_offset 28
 883              		.cfi_offset 4, -28
 884              		.cfi_offset 5, -24
 885              		.cfi_offset 6, -20
 886              		.cfi_offset 7, -16
 887              		.cfi_offset 8, -12
 888              		.cfi_offset 9, -8
 889              		.cfi_offset 14, -4
 890 0004 9DB0     		sub	sp, sp, #116
 891              		.cfi_def_cfa_offset 144
 892 0006 8146     		mov	r9, r0
 345:SDI12.c       ****     uint8 i, j, k, valid;
 893              		.loc 1 345 0
 894 0008 6422     		movs	r2, #100
 895 000a 0021     		movs	r1, #0
 896 000c 03A8     		add	r0, sp, #12
 897              	.LVL83:
 898 000e FFF7FEFF 		bl	memset
 899              	.LVL84:
 348:SDI12.c       ****     sensors[1] = GS3;
 900              		.loc 1 348 0
 901 0012 574C     		ldr	r4, .L79
 902 0014 574D     		ldr	r5, .L79+4
 903 0016 2646     		mov	r6, r4
 904 0018 AE46     		mov	lr, r5
 905 001a BEE80F00 		ldmia	lr!, {r0, r1, r2, r3}
 906 001e 0FC6     		stmia	r6!, {r0, r1, r2, r3}
 907 0020 BEE80F00 		ldmia	lr!, {r0, r1, r2, r3}
 908 0024 0FC6     		stmia	r6!, {r0, r1, r2, r3}
 909 0026 BEE80F00 		ldmia	lr!, {r0, r1, r2, r3}
 910 002a 0FC6     		stmia	r6!, {r0, r1, r2, r3}
 911 002c DEF80030 		ldr	r3, [lr]
 912 0030 3360     		str	r3, [r6]
 349:SDI12.c       ****     
 913              		.loc 1 349 0
 914 0032 3434     		adds	r4, r4, #52
 915 0034 3435     		adds	r5, r5, #52
 916 0036 0FCD     		ldmia	r5!, {r0, r1, r2, r3}
 917 0038 0FC4     		stmia	r4!, {r0, r1, r2, r3}
 918 003a 0FCD     		ldmia	r5!, {r0, r1, r2, r3}
 919 003c 0FC4     		stmia	r4!, {r0, r1, r2, r3}
ARM GAS  C:\Users\mame\AppData\Local\Temp\ccpggl3x.s 			page 27


 920 003e 0FCD     		ldmia	r5!, {r0, r1, r2, r3}
 921 0040 0FC4     		stmia	r4!, {r0, r1, r2, r3}
 922 0042 2B68     		ldr	r3, [r5]
 923 0044 2360     		str	r3, [r4]
 351:SDI12.c       ****     SDI12_Power_Write(1u);
 924              		.loc 1 351 0
 925 0046 FFF7FEFF 		bl	SDI12_start
 926              	.LVL85:
 352:SDI12.c       ****       
 927              		.loc 1 352 0
 928 004a 0120     		movs	r0, #1
 929 004c FFF7FEFF 		bl	SDI12_Power_Write
 930              	.LVL86:
 358:SDI12.c       ****         if (0x00000001 & SDI12_flag>>k)  {
 931              		.loc 1 358 0
 932 0050 0026     		movs	r6, #0
 933 0052 80E0     		b	.L62
 934              	.LVL87:
 935              	.L74:
 359:SDI12.c       ****             /*/ Ensure we don't access nonexistent array index
 936              		.loc 1 359 0
 937 0054 3446     		mov	r4, r6
 938 0056 49FA06F3 		asr	r3, r9, r6
 939 005a 13F0010F 		tst	r3, #1
 940 005e 50D1     		bne	.L75
 941 0060 77E0     		b	.L64
 942              	.LVL88:
 943              	.L71:
 371:SDI12.c       ****                 
 944              		.loc 1 371 0
 945 0062 C820     		movs	r0, #200
 946 0064 FFF7FEFF 		bl	CyDelay
 947              	.LVL89:
 373:SDI12.c       ****                 if (valid == 1u){  
 948              		.loc 1 373 0
 949 0068 414A     		ldr	r2, .L79
 950 006a 3423     		movs	r3, #52
 951 006c 03FB0428 		mla	r8, r3, r4, r2
 952 0070 4046     		mov	r0, r8
 953 0072 FFF7FEFF 		bl	SDI12_is_active
 954              	.LVL90:
 374:SDI12.c       ****                     
 955              		.loc 1 374 0
 956 0076 0128     		cmp	r0, #1
 957 0078 35D1     		bne	.L76
 376:SDI12.c       ****                     
 958              		.loc 1 376 0
 959 007a 0020     		movs	r0, #0
 960              	.LVL91:
 961 007c FFF7FEFF 		bl	LED_Write
 962              	.LVL92:
 380:SDI12.c       ****                     valid = SDI12_info(&sensors[k]); 
 963              		.loc 1 380 0
 964 0080 C820     		movs	r0, #200
 965 0082 FFF7FEFF 		bl	CyDelay
 966              	.LVL93:
 381:SDI12.c       ****                     CyDelay(200u);
ARM GAS  C:\Users\mame\AppData\Local\Temp\ccpggl3x.s 			page 28


 967              		.loc 1 381 0
 968 0086 4046     		mov	r0, r8
 969 0088 FFF7FEFF 		bl	SDI12_info
 970              	.LVL94:
 382:SDI12.c       **** 
 971              		.loc 1 382 0
 972 008c C820     		movs	r0, #200
 973 008e FFF7FEFF 		bl	CyDelay
 974              	.LVL95:
 384:SDI12.c       ****                         valid = 1; // Successfully took a measurement
 975              		.loc 1 384 0
 976 0092 4046     		mov	r0, r8
 977 0094 FFF7FEFF 		bl	SDI12_take_measurement
 978              	.LVL96:
 979 0098 70B1     		cbz	r0, .L77
 980              	.LVL97:
 386:SDI12.c       ****                         break;                    
 981              		.loc 1 386 0
 982 009a 0120     		movs	r0, #1
 983 009c FFF7FEFF 		bl	blink_LED
 984              	.LVL98:
 387:SDI12.c       ****                     } else {
 985              		.loc 1 387 0
 986 00a0 32E0     		b	.L67
 987              	.LVL99:
 988              	.L68:
 392:SDI12.c       ****                         }
 989              		.loc 1 392 0 discriminator 3
 990 00a2 3422     		movs	r2, #52
 991 00a4 3249     		ldr	r1, .L79
 992 00a6 02FB0412 		mla	r2, r2, r4, r1
 993 00aa 9268     		ldr	r2, [r2, #8]
 994 00ac 3249     		ldr	r1, .L79+8
 995 00ae 42F82310 		str	r1, [r2, r3, lsl #2]	@ float
 391:SDI12.c       ****                             (sensors[k]).values[j] = (float) valid;
 996              		.loc 1 391 0 discriminator 3
 997 00b2 0133     		adds	r3, r3, #1
 998              	.LVL100:
 999 00b4 DBB2     		uxtb	r3, r3
 1000              	.LVL101:
 1001 00b6 00E0     		b	.L66
 1002              	.LVL102:
 1003              	.L77:
 1004 00b8 0023     		movs	r3, #0
 1005              	.L66:
 1006              	.LVL103:
 391:SDI12.c       ****                             (sensors[k]).values[j] = (float) valid;
 1007              		.loc 1 391 0 is_stmt 0 discriminator 1
 1008 00ba 3422     		movs	r2, #52
 1009 00bc 2C49     		ldr	r1, .L79
 1010 00be 02FB0412 		mla	r2, r2, r4, r1
 1011 00c2 127B     		ldrb	r2, [r2, #12]	@ zero_extendqisi2
 1012 00c4 9342     		cmp	r3, r2
 1013 00c6 ECD3     		bcc	.L68
 394:SDI12.c       ****                     }            
 1014              		.loc 1 394 0 is_stmt 1
 1015 00c8 0420     		movs	r0, #4
ARM GAS  C:\Users\mame\AppData\Local\Temp\ccpggl3x.s 			page 29


 1016 00ca FFF7FEFF 		bl	blink_LED
 1017              	.LVL104:
 1018 00ce 15E0     		b	.L69
 1019              	.LVL105:
 1020              	.L70:
 401:SDI12.c       ****                     }
 1021              		.loc 1 401 0 discriminator 3
 1022 00d0 3422     		movs	r2, #52
 1023 00d2 2749     		ldr	r1, .L79
 1024 00d4 02FB0412 		mla	r2, r2, r4, r1
 1025 00d8 9268     		ldr	r2, [r2, #8]
 1026 00da 2849     		ldr	r1, .L79+12
 1027 00dc 42F82310 		str	r1, [r2, r3, lsl #2]	@ float
 400:SDI12.c       ****                         (sensors[k]).values[j] = (float) valid;
 1028              		.loc 1 400 0 discriminator 3
 1029 00e0 0133     		adds	r3, r3, #1
 1030              	.LVL106:
 1031 00e2 DBB2     		uxtb	r3, r3
 1032              	.LVL107:
 1033 00e4 00E0     		b	.L65
 1034              	.LVL108:
 1035              	.L76:
 1036 00e6 0023     		movs	r3, #0
 1037              	.L65:
 1038              	.LVL109:
 400:SDI12.c       ****                         (sensors[k]).values[j] = (float) valid;
 1039              		.loc 1 400 0 is_stmt 0 discriminator 1
 1040 00e8 3422     		movs	r2, #52
 1041 00ea 2149     		ldr	r1, .L79
 1042 00ec 02FB0412 		mla	r2, r2, r4, r1
 1043 00f0 127B     		ldrb	r2, [r2, #12]	@ zero_extendqisi2
 1044 00f2 9342     		cmp	r3, r2
 1045 00f4 ECD3     		bcc	.L70
 403:SDI12.c       ****                     
 1046              		.loc 1 403 0 is_stmt 1
 1047 00f6 0120     		movs	r0, #1
 1048              	.LVL110:
 1049 00f8 FFF7FEFF 		bl	LED_Write
 1050              	.LVL111:
 1051              	.L69:
 370:SDI12.c       ****                 CyDelay(200u);
 1052              		.loc 1 370 0 discriminator 2
 1053 00fc 0135     		adds	r5, r5, #1
 1054              	.LVL112:
 1055 00fe EDB2     		uxtb	r5, r5
 1056              	.LVL113:
 1057 0100 00E0     		b	.L63
 1058              	.LVL114:
 1059              	.L75:
 1060 0102 0025     		movs	r5, #0
 1061              	.L63:
 1062              	.LVL115:
 370:SDI12.c       ****                 CyDelay(200u);
 1063              		.loc 1 370 0 is_stmt 0 discriminator 1
 1064 0104 312D     		cmp	r5, #49
 1065 0106 ACD9     		bls	.L71
 1066              	.L67:
ARM GAS  C:\Users\mame\AppData\Local\Temp\ccpggl3x.s 			page 30


 408:SDI12.c       ****             
 1067              		.loc 1 408 0 is_stmt 1
 1068 0108 0020     		movs	r0, #0
 1069 010a FFF7FEFF 		bl	LED_Write
 1070              	.LVL116:
 412:SDI12.c       ****             
 1071              		.loc 1 412 0
 1072 010e 03A8     		add	r0, sp, #12
 1073 0110 FFF7FEFF 		bl	clear_str
 1074              	.LVL117:
 415:SDI12.c       ****                 // char[] output is used for debugging purposes
 1075              		.loc 1 415 0
 1076 0114 0025     		movs	r5, #0
 1077              	.LVL118:
 1078 0116 15E0     		b	.L72
 1079              	.LVL119:
 1080              	.L73:
 417:SDI12.c       ****                 
 1081              		.loc 1 417 0 discriminator 3
 1082 0118 3423     		movs	r3, #52
 1083 011a 154A     		ldr	r2, .L79
 1084 011c 03FB0423 		mla	r3, r3, r4, r2
 1085 0120 5A68     		ldr	r2, [r3, #4]
 1086 0122 9B68     		ldr	r3, [r3, #8]
 1087 0124 52F82570 		ldr	r7, [r2, r5, lsl #2]
 1088 0128 53F82500 		ldr	r0, [r3, r5, lsl #2]	@ float
 1089 012c FFF7FEFF 		bl	__aeabi_f2d
 1090              	.LVL120:
 1091 0130 CDE90001 		strd	r0, [sp]
 1092 0134 3B46     		mov	r3, r7
 1093 0136 03AA     		add	r2, sp, #12
 1094 0138 1149     		ldr	r1, .L79+16
 1095 013a 1046     		mov	r0, r2
 1096 013c FFF7FEFF 		bl	sprintf
 1097              	.LVL121:
 415:SDI12.c       ****                 // char[] output is used for debugging purposes
 1098              		.loc 1 415 0 discriminator 3
 1099 0140 0135     		adds	r5, r5, #1
 1100              	.LVL122:
 1101 0142 EDB2     		uxtb	r5, r5
 1102              	.LVL123:
 1103              	.L72:
 415:SDI12.c       ****                 // char[] output is used for debugging purposes
 1104              		.loc 1 415 0 is_stmt 0 discriminator 1
 1105 0144 3423     		movs	r3, #52
 1106 0146 0A4A     		ldr	r2, .L79
 1107 0148 03FB0423 		mla	r3, r3, r4, r2
 1108 014c 1B7B     		ldrb	r3, [r3, #12]	@ zero_extendqisi2
 1109 014e 9D42     		cmp	r5, r3
 1110 0150 E2D3     		bcc	.L73
 1111              	.LVL124:
 1112              	.L64:
 358:SDI12.c       ****         if (0x00000001 & SDI12_flag>>k)  {
 1113              		.loc 1 358 0 is_stmt 1 discriminator 2
 1114 0152 0136     		adds	r6, r6, #1
 1115              	.LVL125:
 1116 0154 F6B2     		uxtb	r6, r6
ARM GAS  C:\Users\mame\AppData\Local\Temp\ccpggl3x.s 			page 31


 1117              	.LVL126:
 1118              	.L62:
 358:SDI12.c       ****         if (0x00000001 & SDI12_flag>>k)  {
 1119              		.loc 1 358 0 is_stmt 0 discriminator 1
 1120 0156 012E     		cmp	r6, #1
 1121 0158 7FF67CAF 		bls	.L74
 430:SDI12.c       ****     SDI12_stop(); 
 1122              		.loc 1 430 0 is_stmt 1
 1123 015c 0020     		movs	r0, #0
 1124 015e FFF7FEFF 		bl	SDI12_Power_Write
 1125              	.LVL127:
 431:SDI12.c       ****     
 1126              		.loc 1 431 0
 1127 0162 FFF7FEFF 		bl	SDI12_stop
 1128              	.LVL128:
 434:SDI12.c       **** 
 1129              		.loc 1 434 0
 1130 0166 0020     		movs	r0, #0
 1131 0168 1DB0     		add	sp, sp, #116
 1132              		.cfi_def_cfa_offset 28
 1133              		@ sp needed
 1134 016a BDE8F083 		pop	{r4, r5, r6, r7, r8, r9, pc}
 1135              	.LVL129:
 1136              	.L80:
 1137 016e 00BF     		.align	2
 1138              	.L79:
 1139 0170 00000000 		.word	sensors
 1140 0174 00000000 		.word	.LANCHOR1
 1141 0178 00007E43 		.word	1132331008
 1142 017c 00007F43 		.word	1132396544
 1143 0180 38000000 		.word	.LC10
 1144              		.cfi_endproc
 1145              	.LFE74:
 1146              		.size	zip_SDI12, .-zip_SDI12
 1147              		.comm	sign,4,4
 1148              		.comm	ptr_end,4,4
 1149              		.global	delay_str
 1150              		.global	value_str
 1151              		.global	command
 1152              		.global	ms_delay
 1153              		.global	i
 1154              		.global	GS3
 1155              		.global	GS3_values
 1156              		.global	GS3_labels
 1157              		.global	solinst
 1158              		.global	values
 1159              		.global	labels
 1160              		.comm	sensors,104,4
 1161              		.data
 1162              		.align	2
 1163              		.set	.LANCHOR1,. + 0
 1164              		.type	solinst, %object
 1165              		.size	solinst, 52
 1166              	solinst:
 1167 0000 60000000 		.word	.LC15
 1168 0004 00000000 		.word	labels
 1169 0008 00000000 		.word	values
ARM GAS  C:\Users\mame\AppData\Local\Temp\ccpggl3x.s 			page 32


 1170 000c 02       		.byte	2
 1171 000d 00000000 		.space	39
 1171      00000000 
 1171      00000000 
 1171      00000000 
 1171      00000000 
 1172              		.type	GS3, %object
 1173              		.size	GS3, 52
 1174              	GS3:
 1175 0034 44000000 		.word	.LC11
 1176 0038 00000000 		.word	GS3_labels
 1177 003c 00000000 		.word	GS3_values
 1178 0040 03       		.byte	3
 1179 0041 00000000 		.space	39
 1179      00000000 
 1179      00000000 
 1179      00000000 
 1179      00000000 
 1180              		.type	GS3_values, %object
 1181              		.size	GS3_values, 12
 1182              	GS3_values:
 1183 0068 0000C2C2 		.word	-1027473408
 1184 006c 0000BEC2 		.word	-1027735552
 1185 0070 CDCCBDC2 		.word	-1027748659
 1186              		.type	GS3_labels, %object
 1187              		.size	GS3_labels, 12
 1188              	GS3_labels:
 1189 0074 48000000 		.word	.LC12
 1190 0078 50000000 		.word	.LC13
 1191 007c 58000000 		.word	.LC14
 1192              		.type	values, %object
 1193              		.size	values, 8
 1194              	values:
 1195 0080 0000C6C2 		.word	-1027211264
 1196 0084 0000C4C2 		.word	-1027342336
 1197              		.type	labels, %object
 1198              		.size	labels, 8
 1199              	labels:
 1200 0088 64000000 		.word	.LC16
 1201 008c 70000000 		.word	.LC17
 1202              		.section	.rodata.str1.4,"aMS",%progbits,1
 1203              		.align	2
 1204              	.LC0:
 1205 0000 00       		.ascii	"\000"
 1206 0001 000000   		.space	3
 1207              	.LC1:
 1208 0004 25732573 		.ascii	"%s%s%s\000"
 1208      257300
 1209 000b 00       		.space	1
 1210              	.LC2:
 1211 000c 2100     		.ascii	"!\000"
 1212 000e 0000     		.space	2
 1213              	.LC3:
 1214 0010 0D0A00   		.ascii	"\015\012\000"
 1215 0013 00       		.space	1
 1216              	.LC4:
 1217 0014 4100     		.ascii	"A\000"
ARM GAS  C:\Users\mame\AppData\Local\Temp\ccpggl3x.s 			page 33


 1218 0016 0000     		.space	2
 1219              	.LC5:
 1220 0018 25732573 		.ascii	"%s%s%s%s\000"
 1220      25732573 
 1220      00
 1221 0021 000000   		.space	3
 1222              	.LC6:
 1223 0024 25730D0A 		.ascii	"%s\015\012\000"
 1223      00
 1224 0029 000000   		.space	3
 1225              	.LC7:
 1226 002c 4D00     		.ascii	"M\000"
 1227 002e 0000     		.space	2
 1228              	.LC8:
 1229 0030 443000   		.ascii	"D0\000"
 1230 0033 00       		.space	1
 1231              	.LC9:
 1232 0034 4900     		.ascii	"I\000"
 1233 0036 0000     		.space	2
 1234              	.LC10:
 1235 0038 25732025 		.ascii	"%s %s %f\000"
 1235      73202566 
 1235      00
 1236 0041 000000   		.space	3
 1237              	.LC11:
 1238 0044 3100     		.ascii	"1\000"
 1239 0046 0000     		.space	2
 1240              	.LC12:
 1241 0048 4753335F 		.ascii	"GS3_1\000"
 1241      3100
 1242 004e 0000     		.space	2
 1243              	.LC13:
 1244 0050 4753335F 		.ascii	"GS3_2\000"
 1244      3200
 1245 0056 0000     		.space	2
 1246              	.LC14:
 1247 0058 4753335F 		.ascii	"GS3_3\000"
 1247      3300
 1248 005e 0000     		.space	2
 1249              	.LC15:
 1250 0060 3000     		.ascii	"0\000"
 1251 0062 0000     		.space	2
 1252              	.LC16:
 1253 0064 736F6C69 		.ascii	"solinst_T\000"
 1253      6E73745F 
 1253      5400
 1254 006e 0000     		.space	2
 1255              	.LC17:
 1256 0070 736F6C69 		.ascii	"solinst_P\000"
 1256      6E73745F 
 1256      5000
 1257              		.bss
 1258              		.align	2
 1259              		.set	.LANCHOR0,. + 0
 1260              		.type	SDI12_buf_idx, %object
 1261              		.size	SDI12_buf_idx, 1
 1262              	SDI12_buf_idx:
ARM GAS  C:\Users\mame\AppData\Local\Temp\ccpggl3x.s 			page 34


 1263 0000 00       		.space	1
 1264 0001 000000   		.space	3
 1265              		.type	SDI12_uart_buf, %object
 1266              		.size	SDI12_uart_buf, 257
 1267              	SDI12_uart_buf:
 1268 0004 00000000 		.space	257
 1268      00000000 
 1268      00000000 
 1268      00000000 
 1268      00000000 
 1269 0105 000000   		.space	3
 1270              		.type	command, %object
 1271              		.size	command, 100
 1272              	command:
 1273 0108 00000000 		.space	100
 1273      00000000 
 1273      00000000 
 1273      00000000 
 1273      00000000 
 1274              		.type	value_str, %object
 1275              		.size	value_str, 100
 1276              	value_str:
 1277 016c 00000000 		.space	100
 1277      00000000 
 1277      00000000 
 1277      00000000 
 1277      00000000 
 1278              		.type	i, %object
 1279              		.size	i, 1
 1280              	i:
 1281 01d0 00       		.space	1
 1282 01d1 000000   		.space	3
 1283              		.type	delay_str, %object
 1284              		.size	delay_str, 10
 1285              	delay_str:
 1286 01d4 00000000 		.space	10
 1286      00000000 
 1286      0000
 1287 01de 0000     		.space	2
 1288              		.type	ms_delay, %object
 1289              		.size	ms_delay, 4
 1290              	ms_delay:
 1291 01e0 00000000 		.space	4
 1292              		.text
 1293              	.Letext0:
 1294              		.file 2 "c:\\program files\\cypress\\psoc creator\\4.1\\psoc creator\\import\\gnu\\arm\\5.4.1\\arm
 1295              		.file 3 "c:\\program files\\cypress\\psoc creator\\4.1\\psoc creator\\import\\gnu\\arm\\5.4.1\\arm
 1296              		.file 4 "Generated_Source\\PSoC5/cytypes.h"
 1297              		.file 5 "SDI12.h"
 1298              		.file 6 "Generated_Source\\PSoC5/core_cm3.h"
 1299              		.file 7 "Generated_Source\\PSoC5/SDI12_UART.h"
 1300              		.file 8 "Generated_Source\\PSoC5/isr_SDI12.h"
 1301              		.file 9 "Generated_Source\\PSoC5/SDI12_control_reg.h"
 1302              		.file 10 "Generated_Source\\PSoC5/CyLib.h"
 1303              		.file 11 "strlib.h"
 1304              		.file 12 "c:\\program files\\cypress\\psoc creator\\4.1\\psoc creator\\import\\gnu\\arm\\5.4.1\\ar
 1305              		.file 13 "c:\\program files\\cypress\\psoc creator\\4.1\\psoc creator\\import\\gnu\\arm\\5.4.1\\ar
ARM GAS  C:\Users\mame\AppData\Local\Temp\ccpggl3x.s 			page 35


 1306              		.file 14 "c:\\program files\\cypress\\psoc creator\\4.1\\psoc creator\\import\\gnu\\arm\\5.4.1\\ar
 1307              		.file 15 "Generated_Source\\PSoC5/SDI12_Power.h"
 1308              		.file 16 "Generated_Source\\PSoC5/LED.h"
 1309              		.file 17 "misc.h"
 1310              		.file 18 "<built-in>"