ARM GAS  C:\Users\mame\AppData\Local\Temp\ccpggl3x.s 			page 1


   1              		.syntax unified
   2              		.cpu cortex-m3
   3              		.fpu softvfp
   4              		.eabi_attribute 20, 1
   5              		.eabi_attribute 21, 1
   6              		.eabi_attribute 23, 3
   7              		.eabi_attribute 24, 1
   8              		.eabi_attribute 25, 1
   9              		.eabi_attribute 26, 1
  10              		.eabi_attribute 30, 1
  11              		.eabi_attribute 34, 1
  12              		.eabi_attribute 18, 4
  13              		.thumb
  14              		.syntax unified
  15              		.file	"SDI12.c"
  16              		.text
  17              	.Ltext0:
  18              		.cfi_sections	.debug_frame
  19              		.section	.text.isr_SDI12_data,"ax",%progbits
  20              		.align	2
  21              		.global	isr_SDI12_data
  22              		.thumb
  23              		.thumb_func
  24              		.type	isr_SDI12_data, %function
  25              	isr_SDI12_data:
  26              	.LFB75:
  27              		.file 1 "SDI12.c"
   1:SDI12.c       **** /**
   2:SDI12.c       ****  * @file SDI12.c
   3:SDI12.c       ****  * @brief Implements functions for SDI12 sensors.
   4:SDI12.c       ****  * @author Brandon Wong
   5:SDI12.c       ****  * @version TODO
   6:SDI12.c       ****  * @date 2017-10-28
   7:SDI12.c       ****  */
   8:SDI12.c       **** 
   9:SDI12.c       **** #include "SDI12.h"
  10:SDI12.c       **** #include "misc.h"
  11:SDI12.c       **** 
  12:SDI12.c       **** //*========== #BEGIN Define SDI12 sensors ==========//
  13:SDI12.c       **** //----------   SDI12 Array   ----------//
  14:SDI12.c       **** #define N_SDI12_SENSORS     2           // Total number of sensors defined
  15:SDI12.c       **** SDI12_sensor sensors[N_SDI12_SENSORS];  // GOTO zip_SDI12()
  16:SDI12.c       **** 
  17:SDI12.c       **** //----------  (1/2) Solinst  ----------//
  18:SDI12.c       **** char* labels[] = {"solinst_T","solinst_P"};
  19:SDI12.c       **** float values[] = {-99.0, -98.0};
  20:SDI12.c       **** SDI12_sensor solinst = { 
  21:SDI12.c       ****     .nvars   = 2,
  22:SDI12.c       ****     .address = "0",
  23:SDI12.c       ****     .labels  = labels,
  24:SDI12.c       ****     .values  = values
  25:SDI12.c       ****     // additional metadata should initialize to 0 or '\0' //
  26:SDI12.c       **** }; 
  27:SDI12.c       **** 
  28:SDI12.c       **** //----------  (2/2) Decagon  ----------//
  29:SDI12.c       **** char* GS3_labels[] = {"GS3_1","GS3_2","GS3_3"};
  30:SDI12.c       **** float GS3_values[] = {-97.0, -95.0, -94.9};
ARM GAS  C:\Users\mame\AppData\Local\Temp\ccpggl3x.s 			page 2


  31:SDI12.c       **** SDI12_sensor GS3 = {
  32:SDI12.c       ****     .nvars   = 3,
  33:SDI12.c       ****     .address = "1",
  34:SDI12.c       ****     .labels  = GS3_labels,
  35:SDI12.c       ****     .values  = GS3_values        
  36:SDI12.c       ****     // additional metadata should initialize to 0 or '\0' //
  37:SDI12.c       **** };  
  38:SDI12.c       **** // ========== #END   Define SDI12 sensors ==========//*/
  39:SDI12.c       **** 
  40:SDI12.c       **** // The buffer and index are dependent on eachother. This buffer is implemented
  41:SDI12.c       **** // as a circular buffer to avoid overflow.
  42:SDI12.c       **** static char SDI12_uart_buf[257] = {'\0'};
  43:SDI12.c       **** static uint8_t SDI12_buf_idx = 0u;
  44:SDI12.c       **** 
  45:SDI12.c       **** // unsigned ints for taking measurements
  46:SDI12.c       **** uint8         i = 0u; // for iterating through sensor measurements
  47:SDI12.c       **** uint32 ms_delay = 0u; // for delaying the code while measurements are being taken
  48:SDI12.c       **** 
  49:SDI12.c       **** // string for constructing the command sent to the SDI12 sensor
  50:SDI12.c       **** char command[100] = {'\0'};
  51:SDI12.c       **** 
  52:SDI12.c       **** // string and pointer to store and parse SDI12 measurement results
  53:SDI12.c       **** char value_str[100] = {'\0'}, delay_str[10] = {'\0'}, *ptr_end, *sign; 
  54:SDI12.c       **** 
  55:SDI12.c       **** 
  56:SDI12.c       **** void SDI12_start(){
  57:SDI12.c       ****     SDI12_UART_Start();
  58:SDI12.c       ****     isr_SDI12_StartEx(isr_SDI12_data); 
  59:SDI12.c       **** }
  60:SDI12.c       **** 
  61:SDI12.c       **** void SDI12_stop(){
  62:SDI12.c       ****     isr_SDI12_Stop(); 
  63:SDI12.c       ****     SDI12_UART_Stop();
  64:SDI12.c       **** }
  65:SDI12.c       **** 
  66:SDI12.c       **** /**
  67:SDI12.c       ****  * @brief 
  68:SDI12.c       ****  */
  69:SDI12.c       **** void SDI12_uart_clear_string() {
  70:SDI12.c       ****     SDI12_UART_ClearRxBuffer();
  71:SDI12.c       ****     memset(SDI12_uart_buf, '\0', sizeof(SDI12_uart_buf));
  72:SDI12.c       ****     SDI12_buf_idx = 0u;
  73:SDI12.c       **** }
  74:SDI12.c       **** 
  75:SDI12.c       **** char* sensors_uart_get_string() {
  76:SDI12.c       ****     return SDI12_uart_buf; 
  77:SDI12.c       **** }
  78:SDI12.c       **** 
  79:SDI12.c       **** 
  80:SDI12.c       **** /**
  81:SDI12.c       ****  * @brief Send an SDI12-formatted command. A command always starts with
  82:SDI12.c       ****  *        the address of the sensor, followed by the command, and is terminated by 
  83:SDI12.c       ****  *        and exclamation point: <address><command>!
  84:SDI12.c       ****  * 
  85:SDI12.c       ****  * @param command String of the command to send
  86:SDI12.c       ****  *
  87:SDI12.c       ****  */
ARM GAS  C:\Users\mame\AppData\Local\Temp\ccpggl3x.s 			page 3


  88:SDI12.c       **** void SDI12_send_command(char command[]) {
  89:SDI12.c       ****     // Wake up the sensors
  90:SDI12.c       ****     // Pull the Data pin high for 12 milliseconds
  91:SDI12.c       ****     SDI12_control_reg_Write(1u);
  92:SDI12.c       ****     CyDelayUs(12000u);  // 12 milliseconds = 12 x 10^3 microseconds
  93:SDI12.c       **** 
  94:SDI12.c       ****     // Pull the Data pin low for 8.4 milliseconds
  95:SDI12.c       ****     SDI12_control_reg_Write(0u);
  96:SDI12.c       ****     CyDelayUs(8400u);   // 8.4 milliseconds = 8.4 x 10^3 microseconds
  97:SDI12.c       ****         
  98:SDI12.c       ****     // Write the command to the Data pin
  99:SDI12.c       ****     SDI12_UART_PutString(command);
 100:SDI12.c       **** }
 101:SDI12.c       **** 
 102:SDI12.c       **** /**
 103:SDI12.c       ****  * @brief Check if an SDI12 sensor is on, given its address
 104:SDI12.c       ****  * 
 105:SDI12.c       ****  * @param sensor SDI12_sensor that we want to check the status of
 106:SDI12.c       ****  *
 107:SDI12.c       ****  * @return 1u if active, 0u if inactive
 108:SDI12.c       ****  */
 109:SDI12.c       **** uint8 SDI12_is_active(SDI12_sensor* sensor) {
 110:SDI12.c       ****     /* 1. Request if SDI12 sensor is active */
 111:SDI12.c       ****     clear_str(command);
 112:SDI12.c       ****     
 113:SDI12.c       ****     /* 2. Construct the command <address><command><!> */
 114:SDI12.c       ****     sprintf(command,"%s%s%s",(*sensor).address,ACK_ACTIVE,"!");
 115:SDI12.c       ****     SDI12_uart_clear_string();
 116:SDI12.c       ****     
 117:SDI12.c       ****     /* 3. Send the command to the sensor */
 118:SDI12.c       ****     SDI12_send_command(command);
 119:SDI12.c       ****     
 120:SDI12.c       ****     /* 4. Parse the received data, if any */
 121:SDI12.c       ****     /* TODO: This can be shortened using a for-loop like in SDI12_take_measurement() */
 122:SDI12.c       ****     CyDelay(1000u); // Delay for readings to be transmitted
 123:SDI12.c       ****     
 124:SDI12.c       ****     // Copy the SDI12 UART buffer into temporary buffer
 125:SDI12.c       ****     // *TODO: Parse sensor address from the response
 126:SDI12.c       ****     clear_str(value_str);
 127:SDI12.c       ****     if (strextract(SDI12_uart_buf, value_str, "!" ,"\r\n")) {
 128:SDI12.c       ****         // If "\r\n" is in the response, the sensor is active
 129:SDI12.c       ****         return 1u;
 130:SDI12.c       ****     }
 131:SDI12.c       ****     
 132:SDI12.c       ****     return 0u;
 133:SDI12.c       **** }
 134:SDI12.c       **** 
 135:SDI12.c       **** /** 
 136:SDI12.c       ****  * @brief Change the address of an SDI12 sensor
 137:SDI12.c       ****  *
 138:SDI12.c       ****  * @param sensor SDI12_sensor that we want to change the address of
 139:SDI12.c       ****  * @param new_address String (single char, either 0-9, a-z, A-Z) of the desired address
 140:SDI12.c       ****  *
 141:SDI12.c       ****  * @return 1u if successful, 0u if unsuccessful
 142:SDI12.c       ****  */
 143:SDI12.c       **** uint8 SDI12_change_address(SDI12_sensor* sensor, char new_address[]) {
 144:SDI12.c       ****  
ARM GAS  C:\Users\mame\AppData\Local\Temp\ccpggl3x.s 			page 4


 145:SDI12.c       ****     /* 1. Request measurement from addressed SDI12 sensor */
 146:SDI12.c       ****     clear_str(command);
 147:SDI12.c       ****     sprintf(command,"%s%s%s%s",(*sensor).address,CHANGE_ADDR,new_address,"!");
 148:SDI12.c       ****     
 149:SDI12.c       ****     SDI12_uart_clear_string();
 150:SDI12.c       ****     SDI12_send_command(command);    
 151:SDI12.c       ****         
 152:SDI12.c       ****     // Delay max 1000 ms
 153:SDI12.c       ****     // Look for <new address><CR><LF> in the buffer
 154:SDI12.c       ****     clear_str(value_str);
 155:SDI12.c       ****     sprintf(value_str, "%s\r\n", new_address);
 156:SDI12.c       ****     for (i = 0; i < 200; i++) { 
 157:SDI12.c       ****         CyDelay(5u);
 158:SDI12.c       ****         if ( strstr(SDI12_uart_buf, value_str) ) {
 159:SDI12.c       ****             (*sensor).address = new_address;
 160:SDI12.c       ****             return 1u;
 161:SDI12.c       ****         }
 162:SDI12.c       ****     }
 163:SDI12.c       ****     
 164:SDI12.c       ****     return 0u;
 165:SDI12.c       **** }
 166:SDI12.c       **** 
 167:SDI12.c       **** 
 168:SDI12.c       **** /**
 169:SDI12.c       ****  * @brief Take a measurement for an SDI12 sensor, given its address
 170:SDI12.c       ****  * 
 171:SDI12.c       ****  * @param sensor SDI12_sensor that we want to request measurements from
 172:SDI12.c       ****  *
 173:SDI12.c       ****  * @ return 1u if measurements were successfully taken, 0u if there was a communication error
 174:SDI12.c       ****  */
 175:SDI12.c       **** uint8 SDI12_take_measurement(SDI12_sensor* sensor) {
 176:SDI12.c       ****         
 177:SDI12.c       ****     /* 1. Request measurement from addressed SDI12 sensor */
 178:SDI12.c       ****     clear_str(command);
 179:SDI12.c       ****     sprintf(command,"%s%s%s",(*sensor).address,TAKE_MEASUREMENT,"!");
 180:SDI12.c       ****     
 181:SDI12.c       ****     SDI12_uart_clear_string();
 182:SDI12.c       ****     SDI12_send_command(command);
 183:SDI12.c       ****     
 184:SDI12.c       ****     /* 2. Delay for measurement to be taken */
 185:SDI12.c       ****     /*
 186:SDI12.c       ****      * The address sensor responds within 15.0 ms, returning the
 187:SDI12.c       ****      * maximum time until the measurement data will be ready and the
 188:SDI12.c       ****      * number of data values it will return
 189:SDI12.c       ****      */
 190:SDI12.c       ****     clear_str(value_str); 
 191:SDI12.c       ****     clear_str(delay_str);
 192:SDI12.c       ****     
 193:SDI12.c       ****     // supposedly response time is 15 ms, but delaying max 1000 ms to be safe
 194:SDI12.c       ****     // TODO: When taking concurrent measurements, look for <address><CR><LF>
 195:SDI12.c       ****     for (i = 0; i < 200; i++) { 
 196:SDI12.c       ****         CyDelay(5u);
 197:SDI12.c       ****         if ( strextract(SDI12_uart_buf, value_str, "!","\r\n") ) {
 198:SDI12.c       ****             break;
 199:SDI12.c       ****         }
 200:SDI12.c       ****     }
 201:SDI12.c       ****     
ARM GAS  C:\Users\mame\AppData\Local\Temp\ccpggl3x.s 			page 5


 202:SDI12.c       ****     /* Delay while measurements are being prepared */
 203:SDI12.c       ****     /*
 204:SDI12.c       ****      * The returned format for <address>M! is atttn<CR><LF>
 205:SDI12.c       ****      * (NOTE: The returned format for <address>C! is atttnn<CR><LF> -- this will be useful when req
 206:SDI12.c       ****      *        concurrent measurements in the future)
 207:SDI12.c       ****      * Where,
 208:SDI12.c       ****      * -    a: sensor address
 209:SDI12.c       ****      * -  ttt: maximum time until measurement is ready
 210:SDI12.c       ****      * - n(n): number of data values that will be returned
 211:SDI12.c       ****      */
 212:SDI12.c       ****     strncpy(delay_str, value_str+strlen((*sensor).address), 3); // shift ptr by strlen(...) to skip
 213:SDI12.c       ****     ms_delay = ( (uint32) strtod(delay_str,(char**) NULL) ) * 1000u;
 214:SDI12.c       ****     CyDelay(ms_delay);
 215:SDI12.c       ****     
 216:SDI12.c       ****     /* 3. Request data from SDI12 sensor */
 217:SDI12.c       ****     clear_str(command);    
 218:SDI12.c       ****     clear_str(value_str);
 219:SDI12.c       ****     sprintf(command,"%s%s%s",(*sensor).address,READ_MEASUREMENT,"!");   
 220:SDI12.c       ****     
 221:SDI12.c       ****     SDI12_uart_clear_string();
 222:SDI12.c       ****     SDI12_send_command(command);
 223:SDI12.c       ****     
 224:SDI12.c       ****     // Delay a maximum of 1000 ms as readings are transmitted
 225:SDI12.c       ****     for (i = 0; i < 200; i++) {
 226:SDI12.c       ****         CyDelay(5u);
 227:SDI12.c       ****         
 228:SDI12.c       ****         // Copy the SDI12 UART buffer into temporary buffer, value_str
 229:SDI12.c       ****         // and break once "\r\n" is returned
 230:SDI12.c       ****         if ( strextract(SDI12_uart_buf, value_str, "!","\r\n") ) {
 231:SDI12.c       ****             break;
 232:SDI12.c       ****         }
 233:SDI12.c       ****     }
 234:SDI12.c       ****     
 235:SDI12.c       ****     
 236:SDI12.c       ****     /* 4. Parse the received data */    
 237:SDI12.c       ****     // Check for "+" or "-" signs to ensure data was sent
 238:SDI12.c       ****     // First check for "+"
 239:SDI12.c       ****     sign = strstr(value_str,"+");
 240:SDI12.c       ****     if (sign == NULL) {
 241:SDI12.c       ****         // If there is no + sign, check for "-"
 242:SDI12.c       ****         sign = strstr(value_str,"-");
 243:SDI12.c       ****         
 244:SDI12.c       ****         // The absence of "+" or "-" indicates no data was sent yet
 245:SDI12.c       ****         // Return 0 and try querying the sensor again later
 246:SDI12.c       ****         if (sign == NULL) {
 247:SDI12.c       ****             for (i = 0; i < (*sensor).nvars; i++) {
 248:SDI12.c       ****                 (*sensor).values[i] = -9999.0f;
 249:SDI12.c       ****             }
 250:SDI12.c       ****             return 0u;
 251:SDI12.c       ****         }
 252:SDI12.c       ****     }
 253:SDI12.c       ****     
 254:SDI12.c       ****     // Set the pointer to the start of the returned results
 255:SDI12.c       ****     // and shift forward past the address byte
 256:SDI12.c       ****     ptr_end = value_str + strlen((*sensor).address);
 257:SDI12.c       ****     
 258:SDI12.c       ****     // Parse and store all values returned from the sensor
ARM GAS  C:\Users\mame\AppData\Local\Temp\ccpggl3x.s 			page 6


 259:SDI12.c       ****     for (i = 0; i < (*sensor).nvars; i++) {
 260:SDI12.c       ****         (*sensor).values[i] = (float) strtod(ptr_end, &ptr_end);
 261:SDI12.c       ****     }
 262:SDI12.c       ****     
 263:SDI12.c       ****     return 1u;
 264:SDI12.c       ****     
 265:SDI12.c       **** }
 266:SDI12.c       **** 
 267:SDI12.c       **** /**
 268:SDI12.c       ****  * @brief TODO: Take a concurrent measurement for an SDI12 sensor, given its address
 269:SDI12.c       ****  * 
 270:SDI12.c       ****  * @param sensor SDI12_sensor that we want to request measurements from
 271:SDI12.c       ****  *
 272:SDI12.c       ****  * @ return if sensor is active
 273:SDI12.c       ****  */
 274:SDI12.c       **** uint8 SDI12_take_concurrent_measurement(SDI12_sensor* sensor) {
 275:SDI12.c       ****     /* TODO */
 276:SDI12.c       ****     /*
 277:SDI12.c       ****      * Concurrent measurements enable measurements to be triggered for
 278:SDI12.c       ****      * multiple sensors, rather than doing one at a time.
 279:SDI12.c       ****      * 
 280:SDI12.c       ****      * Requires SDI12 V1.2 or greater.
 281:SDI12.c       ****      *
 282:SDI12.c       ****      * Currently returning a dummy response for now.
 283:SDI12.c       ****      */
 284:SDI12.c       ****     return SDI12_is_active(sensor);
 285:SDI12.c       **** }
 286:SDI12.c       **** 
 287:SDI12.c       **** /**
 288:SDI12.c       ****  * @brief Obtain detailed info about an SDI12 sensor, given its address
 289:SDI12.c       ****  * 
 290:SDI12.c       ****  * @param sensor SDI12_sensor that we want to request info from
 291:SDI12.c       ****  *
 292:SDI12.c       ****  * @ return 1u if successful, 0u if unsuccessful
 293:SDI12.c       ****  */
 294:SDI12.c       **** uint8 SDI12_info(SDI12_sensor* sensor) {
 295:SDI12.c       **** 
 296:SDI12.c       ****     /* 1. Request measurement from addressed SDI12 sensor */
 297:SDI12.c       ****     clear_str(command);
 298:SDI12.c       ****     sprintf(command,"%s%s%s",(*sensor).address,INFO,"!");
 299:SDI12.c       ****     
 300:SDI12.c       ****     SDI12_uart_clear_string();
 301:SDI12.c       ****     SDI12_send_command(command);    
 302:SDI12.c       **** 
 303:SDI12.c       ****     clear_str(value_str);
 304:SDI12.c       ****     
 305:SDI12.c       ****     // Look for <CR><LF> in the buffer since <CR><LR> terminates all responses, if there is one 
 306:SDI12.c       ****     // Delay max 1000 ms while doing so
 307:SDI12.c       ****     for (i = 0; i < 200; i++) { 
 308:SDI12.c       ****         CyDelay(5u);
 309:SDI12.c       ****         if (strextract(SDI12_uart_buf, value_str, "!" ,"\r\n")) {
 310:SDI12.c       ****         // If "\r\n" is in the response, then the sensor is active
 311:SDI12.c       ****             
 312:SDI12.c       ****             ptr_end = value_str;
 313:SDI12.c       ****             // Attempt to parse the information and store in "sensor"
 314:SDI12.c       ****             // Move the pointer past the address 
 315:SDI12.c       ****             ptr_end += strlen((*sensor).address);
ARM GAS  C:\Users\mame\AppData\Local\Temp\ccpggl3x.s 			page 7


 316:SDI12.c       ****             
 317:SDI12.c       ****             // SDI-12 specification (2 chars)
 318:SDI12.c       ****             strncpy((*sensor).v_SDI12, ptr_end, 2);
 319:SDI12.c       ****             ptr_end += 2;
 320:SDI12.c       ****             
 321:SDI12.c       ****             // Vendor identification (8 chars)
 322:SDI12.c       ****             strncpy((*sensor).vendor, ptr_end, 8);
 323:SDI12.c       ****             ptr_end += 8;
 324:SDI12.c       ****             
 325:SDI12.c       ****             // Sensor Model (6 chars)
 326:SDI12.c       ****             strncpy((*sensor).model, ptr_end, 6);
 327:SDI12.c       ****             ptr_end += 6;
 328:SDI12.c       ****             
 329:SDI12.c       ****             // Sensor Version (3 chars)
 330:SDI12.c       ****             strncpy((*sensor).version, ptr_end, 3);
 331:SDI12.c       ****             ptr_end += 3;
 332:SDI12.c       ****             
 333:SDI12.c       ****             // Sensor Serial number / misc info (up to 13 chars)
 334:SDI12.c       ****             strncpy((*sensor).serial, ptr_end, 13);
 335:SDI12.c       ****             
 336:SDI12.c       ****             // Assume successful if we reached this point
 337:SDI12.c       ****             return 1u;
 338:SDI12.c       ****         }
 339:SDI12.c       ****     }
 340:SDI12.c       ****     
 341:SDI12.c       ****     return 0u;
 342:SDI12.c       **** }
 343:SDI12.c       **** 
 344:SDI12.c       **** uint8 zip_SDI12(int SDI12_flag) {
 345:SDI12.c       ****     char output[100] = {'\0'}; // For debugging
 346:SDI12.c       ****     uint8 i, j, k, valid;
 347:SDI12.c       ****     
 348:SDI12.c       ****     sensors[0] = solinst;
 349:SDI12.c       ****     sensors[1] = GS3;
 350:SDI12.c       ****     
 351:SDI12.c       ****     SDI12_start();
 352:SDI12.c       ****     SDI12_Power_Write(1u);
 353:SDI12.c       ****       
 354:SDI12.c       ****     // Iterate through each SDI12 sensor
 355:SDI12.c       ****     // TODO: Reconstruct to go thorugh each bit of SDI12_flag if
 356:SDI12.c       ****     //       SDI12_flag is used to flag multiple SDI-12 sensors
 357:SDI12.c       ****     //       (This assumes the number of bits < N_SDI12_SENSORS)
 358:SDI12.c       ****     for (k = 0; k < N_SDI12_SENSORS;  k++) {
 359:SDI12.c       ****         if (0x00000001 & SDI12_flag>>k)  {
 360:SDI12.c       ****             /*/ Ensure we don't access nonexistent array index
 361:SDI12.c       ****             if(*array_ix + (sensors[k]).nvars >= max_size){
 362:SDI12.c       ****                 return *array_ix;
 363:SDI12.c       ****             }    
 364:SDI12.c       ****             //*/
 365:SDI12.c       ****             
 366:SDI12.c       ****             //* ---------- Take measurement(s) from k'th SDI-12 sesnor ---------- //
 367:SDI12.c       ****             valid = 0; // Reinitialize sensor status
 368:SDI12.c       ****             
 369:SDI12.c       ****             // Let the sensor power up max 10000 ms = 10 * 1000 ms
 370:SDI12.c       ****             for (i = 0; i < 50; i++) {
 371:SDI12.c       ****                 CyDelay(200u);
 372:SDI12.c       ****                 
ARM GAS  C:\Users\mame\AppData\Local\Temp\ccpggl3x.s 			page 8


 373:SDI12.c       ****                 valid = SDI12_is_active(&sensors[k]); 
 374:SDI12.c       ****                 if (valid == 1u){  
 375:SDI12.c       ****                     
 376:SDI12.c       ****                     LED_Write(0u);
 377:SDI12.c       ****                     
 378:SDI12.c       ****                     
 379:SDI12.c       ****                     //valid = SDI12_change_address(&sensors[0],"0");
 380:SDI12.c       ****                     CyDelay(200u); 
 381:SDI12.c       ****                     valid = SDI12_info(&sensors[k]); 
 382:SDI12.c       ****                     CyDelay(200u);
 383:SDI12.c       **** 
 384:SDI12.c       ****                     if (SDI12_take_measurement(&sensors[k])) {
 385:SDI12.c       ****                         valid = 1; // Successfully took a measurement
 386:SDI12.c       ****                         blink_LED(1u);
 387:SDI12.c       ****                         break;                    
 388:SDI12.c       ****                     } else {
 389:SDI12.c       ****                         // SDI12 sensor powered on, but unable to parse response
 390:SDI12.c       ****                         valid = -2;                    
 391:SDI12.c       ****                         for (j = 0; j < (sensors[k]).nvars; j++) {
 392:SDI12.c       ****                             (sensors[k]).values[j] = (float) valid;
 393:SDI12.c       ****                         }
 394:SDI12.c       ****                         blink_LED(4u);
 395:SDI12.c       ****                     }            
 396:SDI12.c       ****                                             
 397:SDI12.c       ****                 } else {
 398:SDI12.c       ****                     // SDI12 sensor not responding. It may be powered off or have a different addre
 399:SDI12.c       ****                     valid = -1;
 400:SDI12.c       ****                     for (j = 0; j < (sensors[k]).nvars; j++) {
 401:SDI12.c       ****                         (sensors[k]).values[j] = (float) valid;
 402:SDI12.c       ****                     }
 403:SDI12.c       ****                     LED_Write(1u);
 404:SDI12.c       ****                     
 405:SDI12.c       ****                 }
 406:SDI12.c       ****             }
 407:SDI12.c       ****             
 408:SDI12.c       ****             LED_Write(0u);
 409:SDI12.c       ****             
 410:SDI12.c       ****             //* ---------- Insert measurement(s) from k'th SDI-12 sesnor ---------- //
 411:SDI12.c       ****             // char[] output is used for debugging purposes
 412:SDI12.c       ****             clear_str(output); 
 413:SDI12.c       ****             
 414:SDI12.c       ****             // Insert current values in labels[] and readings[]
 415:SDI12.c       ****             for (j = 0; j < (sensors[k]).nvars; j++) {
 416:SDI12.c       ****                 // char[] output is used for debugging purposes
 417:SDI12.c       ****                 sprintf(output,"%s %s %f", output, (sensors[k]).labels[j], (sensors[k]).values[j]);
 418:SDI12.c       ****                 
 419:SDI12.c       ****                 /*/
 420:SDI12.c       ****                 labels[*array_ix] = (sensors[k]).labels[j];
 421:SDI12.c       ****                 readings[*array_ix] = (sensors[k]).values[j];
 422:SDI12.c       ****                 (*array_ix) += 1;
 423:SDI12.c       ****                 //*/
 424:SDI12.c       ****             }              
 425:SDI12.c       ****             
 426:SDI12.c       ****         }
 427:SDI12.c       ****           
 428:SDI12.c       ****     }
 429:SDI12.c       ****                 
ARM GAS  C:\Users\mame\AppData\Local\Temp\ccpggl3x.s 			page 9


 430:SDI12.c       ****     SDI12_Power_Write(0u);
 431:SDI12.c       ****     SDI12_stop(); 
 432:SDI12.c       ****     
 433:SDI12.c       ****     return 0;//*array_ix;
 434:SDI12.c       **** }
 435:SDI12.c       **** 
 436:SDI12.c       **** CY_ISR(isr_SDI12_data) {
  28              		.loc 1 436 0
  29              		.cfi_startproc
  30              		@ args = 0, pretend = 0, frame = 0
  31              		@ frame_needed = 0, uses_anonymous_args = 0
  32 0000 08B5     		push	{r3, lr}
  33              		.cfi_def_cfa_offset 8
  34              		.cfi_offset 3, -8
  35              		.cfi_offset 14, -4
 437:SDI12.c       ****     // hold the next char in the rx register as a temporary variable
 438:SDI12.c       ****     char rx_char = SDI12_UART_GetChar();
  36              		.loc 1 438 0
  37 0002 FFF7FEFF 		bl	SDI12_UART_GetChar
  38              	.LVL0:
 439:SDI12.c       **** 
 440:SDI12.c       ****     // store the char in SDI12_uart_buf
 441:SDI12.c       ****     if (rx_char) {
  39              		.loc 1 441 0
  40 0006 30B1     		cbz	r0, .L1
  41 0008 0146     		mov	r1, r0
 442:SDI12.c       ****         // unsigned ints don't `overflow`, they reset at 0 if they are
 443:SDI12.c       ****         // incremented one more than it's max value. It will be obvious if an
 444:SDI12.c       ****         // `overflow` occurs
 445:SDI12.c       ****         SDI12_uart_buf[SDI12_buf_idx++] = rx_char;
  42              		.loc 1 445 0
  43 000a 034A     		ldr	r2, .L4
  44 000c 1378     		ldrb	r3, [r2]	@ zero_extendqisi2
  45 000e 581C     		adds	r0, r3, #1
  46              	.LVL1:
  47 0010 1070     		strb	r0, [r2]
  48 0012 1344     		add	r3, r3, r2
  49 0014 1971     		strb	r1, [r3, #4]
  50              	.L1:
  51 0016 08BD     		pop	{r3, pc}
  52              	.L5:
  53              		.align	2
  54              	.L4:
  55 0018 00000000 		.word	.LANCHOR0
  56              		.cfi_endproc
  57              	.LFE75:
  58              		.size	isr_SDI12_data, .-isr_SDI12_data
  59              		.section	.text.SDI12_start,"ax",%progbits
  60              		.align	2
  61              		.global	SDI12_start
  62              		.thumb
  63              		.thumb_func
  64              		.type	SDI12_start, %function
  65              	SDI12_start:
  66              	.LFB64:
  56:SDI12.c       ****     SDI12_UART_Start();
  67              		.loc 1 56 0
ARM GAS  C:\Users\mame\AppData\Local\Temp\ccpggl3x.s 			page 10


  68              		.cfi_startproc
  69              		@ args = 0, pretend = 0, frame = 0
  70              		@ frame_needed = 0, uses_anonymous_args = 0
  71 0000 08B5     		push	{r3, lr}
  72              		.cfi_def_cfa_offset 8
  73              		.cfi_offset 3, -8
  74              		.cfi_offset 14, -4
  57:SDI12.c       ****     isr_SDI12_StartEx(isr_SDI12_data); 
  75              		.loc 1 57 0
  76 0002 FFF7FEFF 		bl	SDI12_UART_Start
  77              	.LVL2:
  58:SDI12.c       **** }
  78              		.loc 1 58 0
  79 0006 0248     		ldr	r0, .L8
  80 0008 FFF7FEFF 		bl	isr_SDI12_StartEx
  81              	.LVL3:
  82 000c 08BD     		pop	{r3, pc}
  83              	.L9:
  84 000e 00BF     		.align	2
  85              	.L8:
  86 0010 00000000 		.word	isr_SDI12_data
  87              		.cfi_endproc
  88              	.LFE64:
  89              		.size	SDI12_start, .-SDI12_start
  90              		.section	.text.SDI12_stop,"ax",%progbits
  91              		.align	2
  92              		.global	SDI12_stop
  93              		.thumb
  94              		.thumb_func
  95              		.type	SDI12_stop, %function
  96              	SDI12_stop:
  97              	.LFB65:
  61:SDI12.c       ****     isr_SDI12_Stop(); 
  98              		.loc 1 61 0
  99              		.cfi_startproc
 100              		@ args = 0, pretend = 0, frame = 0
 101              		@ frame_needed = 0, uses_anonymous_args = 0
 102 0000 08B5     		push	{r3, lr}
 103              		.cfi_def_cfa_offset 8
 104              		.cfi_offset 3, -8
 105              		.cfi_offset 14, -4
  62:SDI12.c       ****     SDI12_UART_Stop();
 106              		.loc 1 62 0
 107 0002 FFF7FEFF 		bl	isr_SDI12_Stop
 108              	.LVL4:
  63:SDI12.c       **** }
 109              		.loc 1 63 0
 110 0006 FFF7FEFF 		bl	SDI12_UART_Stop
 111              	.LVL5:
 112 000a 08BD     		pop	{r3, pc}
 113              		.cfi_endproc
 114              	.LFE65:
 115              		.size	SDI12_stop, .-SDI12_stop
 116              		.section	.text.SDI12_uart_clear_string,"ax",%progbits
 117              		.align	2
 118              		.global	SDI12_uart_clear_string
 119              		.thumb
ARM GAS  C:\Users\mame\AppData\Local\Temp\ccpggl3x.s 			page 11


 120              		.thumb_func
 121              		.type	SDI12_uart_clear_string, %function
 122              	SDI12_uart_clear_string:
 123              	.LFB66:
  69:SDI12.c       ****     SDI12_UART_ClearRxBuffer();
 124              		.loc 1 69 0
 125              		.cfi_startproc
 126              		@ args = 0, pretend = 0, frame = 0
 127              		@ frame_needed = 0, uses_anonymous_args = 0
 128 0000 10B5     		push	{r4, lr}
 129              		.cfi_def_cfa_offset 8
 130              		.cfi_offset 4, -8
 131              		.cfi_offset 14, -4
  70:SDI12.c       ****     memset(SDI12_uart_buf, '\0', sizeof(SDI12_uart_buf));
 132              		.loc 1 70 0
 133 0002 FFF7FEFF 		bl	SDI12_UART_ClearRxBuffer
 134              	.LVL6:
  71:SDI12.c       ****     SDI12_buf_idx = 0u;
 135              		.loc 1 71 0
 136 0006 054C     		ldr	r4, .L14
 137 0008 40F20112 		movw	r2, #257
 138 000c 0021     		movs	r1, #0
 139 000e 201D     		adds	r0, r4, #4
 140 0010 FFF7FEFF 		bl	memset
 141              	.LVL7:
  72:SDI12.c       **** }
 142              		.loc 1 72 0
 143 0014 0023     		movs	r3, #0
 144 0016 2370     		strb	r3, [r4]
 145 0018 10BD     		pop	{r4, pc}
 146              	.L15:
 147 001a 00BF     		.align	2
 148              	.L14:
 149 001c 00000000 		.word	.LANCHOR0
 150              		.cfi_endproc
 151              	.LFE66:
 152              		.size	SDI12_uart_clear_string, .-SDI12_uart_clear_string
 153              		.section	.text.sensors_uart_get_string,"ax",%progbits
 154              		.align	2
 155              		.global	sensors_uart_get_string
 156              		.thumb
 157              		.thumb_func
 158              		.type	sensors_uart_get_string, %function
 159              	sensors_uart_get_string:
 160              	.LFB67:
  75:SDI12.c       ****     return SDI12_uart_buf; 
 161              		.loc 1 75 0
 162              		.cfi_startproc
 163              		@ args = 0, pretend = 0, frame = 0
 164              		@ frame_needed = 0, uses_anonymous_args = 0
 165              		@ link register save eliminated.
  77:SDI12.c       **** 
 166              		.loc 1 77 0
 167 0000 0048     		ldr	r0, .L17
 168 0002 7047     		bx	lr
 169              	.L18:
 170              		.align	2
ARM GAS  C:\Users\mame\AppData\Local\Temp\ccpggl3x.s 			page 12


 171              	.L17:
 172 0004 04000000 		.word	.LANCHOR0+4
 173              		.cfi_endproc
 174              	.LFE67:
 175              		.size	sensors_uart_get_string, .-sensors_uart_get_string
 176              		.section	.text.SDI12_send_command,"ax",%progbits
 177              		.align	2
 178              		.global	SDI12_send_command
 179              		.thumb
 180              		.thumb_func
 181              		.type	SDI12_send_command, %function
 182              	SDI12_send_command:
 183              	.LFB68:
  88:SDI12.c       ****     // Wake up the sensors
 184              		.loc 1 88 0
 185              		.cfi_startproc
 186              		@ args = 0, pretend = 0, frame = 0
 187              		@ frame_needed = 0, uses_anonymous_args = 0
 188              	.LVL8:
 189 0000 10B5     		push	{r4, lr}
 190              		.cfi_def_cfa_offset 8
 191              		.cfi_offset 4, -8
 192              		.cfi_offset 14, -4
 193 0002 0446     		mov	r4, r0
  91:SDI12.c       ****     CyDelayUs(12000u);  // 12 milliseconds = 12 x 10^3 microseconds
 194              		.loc 1 91 0
 195 0004 0120     		movs	r0, #1
 196              	.LVL9:
 197 0006 FFF7FEFF 		bl	SDI12_control_reg_Write
 198              	.LVL10:
  92:SDI12.c       **** 
 199              		.loc 1 92 0
 200 000a 42F6E060 		movw	r0, #12000
 201 000e FFF7FEFF 		bl	CyDelayUs
 202              	.LVL11:
  95:SDI12.c       ****     CyDelayUs(8400u);   // 8.4 milliseconds = 8.4 x 10^3 microseconds
 203              		.loc 1 95 0
 204 0012 0020     		movs	r0, #0
 205 0014 FFF7FEFF 		bl	SDI12_control_reg_Write
 206              	.LVL12:
  96:SDI12.c       ****         
 207              		.loc 1 96 0
 208 0018 42F2D000 		movw	r0, #8400
 209 001c FFF7FEFF 		bl	CyDelayUs
 210              	.LVL13:
  99:SDI12.c       **** }
 211              		.loc 1 99 0
 212 0020 2046     		mov	r0, r4
 213 0022 FFF7FEFF 		bl	SDI12_UART_PutString
 214              	.LVL14:
 215 0026 10BD     		pop	{r4, pc}
 216              		.cfi_endproc
 217              	.LFE68:
 218              		.size	SDI12_send_command, .-SDI12_send_command
 219              		.section	.text.SDI12_is_active,"ax",%progbits
 220              		.align	2
 221              		.global	SDI12_is_active
ARM GAS  C:\Users\mame\AppData\Local\Temp\ccpggl3x.s 			page 13


 222              		.thumb
 223              		.thumb_func
 224              		.type	SDI12_is_active, %function
 225              	SDI12_is_active:
 226              	.LFB69:
 109:SDI12.c       ****     /* 1. Request if SDI12 sensor is active */
 227              		.loc 1 109 0
 228              		.cfi_startproc
 229              		@ args = 0, pretend = 0, frame = 0
 230              		@ frame_needed = 0, uses_anonymous_args = 0
 231              	.LVL15:
 232 0000 70B5     		push	{r4, r5, r6, lr}
 233              		.cfi_def_cfa_offset 16
 234              		.cfi_offset 4, -16
 235              		.cfi_offset 5, -12
 236              		.cfi_offset 6, -8
 237              		.cfi_offset 14, -4
 238 0002 82B0     		sub	sp, sp, #8
 239              		.cfi_def_cfa_offset 24
 240 0004 0646     		mov	r6, r0
 111:SDI12.c       ****     
 241              		.loc 1 111 0
 242 0006 144C     		ldr	r4, .L25
 243 0008 04F58475 		add	r5, r4, #264
 244 000c 2846     		mov	r0, r5
 245              	.LVL16:
 246 000e FFF7FEFF 		bl	clear_str
 247              	.LVL17:
 114:SDI12.c       ****     SDI12_uart_clear_string();
 248              		.loc 1 114 0
 249 0012 3268     		ldr	r2, [r6]
 250 0014 114E     		ldr	r6, .L25+4
 251              	.LVL18:
 252 0016 0096     		str	r6, [sp]
 253 0018 114B     		ldr	r3, .L25+8
 254 001a 1249     		ldr	r1, .L25+12
 255 001c 2846     		mov	r0, r5
 256 001e FFF7FEFF 		bl	sprintf
 257              	.LVL19:
 115:SDI12.c       ****     
 258              		.loc 1 115 0
 259 0022 FFF7FEFF 		bl	SDI12_uart_clear_string
 260              	.LVL20:
 118:SDI12.c       ****     
 261              		.loc 1 118 0
 262 0026 2846     		mov	r0, r5
 263 0028 FFF7FEFF 		bl	SDI12_send_command
 264              	.LVL21:
 122:SDI12.c       ****     
 265              		.loc 1 122 0
 266 002c 4FF47A70 		mov	r0, #1000
 267 0030 FFF7FEFF 		bl	CyDelay
 268              	.LVL22:
 126:SDI12.c       ****     if (strextract(SDI12_uart_buf, value_str, "!" ,"\r\n")) {
 269              		.loc 1 126 0
 270 0034 04F5B675 		add	r5, r4, #364
 271 0038 2846     		mov	r0, r5
ARM GAS  C:\Users\mame\AppData\Local\Temp\ccpggl3x.s 			page 14


 272 003a FFF7FEFF 		bl	clear_str
 273              	.LVL23:
 127:SDI12.c       ****         // If "\r\n" is in the response, the sensor is active
 274              		.loc 1 127 0
 275 003e 0A4B     		ldr	r3, .L25+16
 276 0040 3246     		mov	r2, r6
 277 0042 2946     		mov	r1, r5
 278 0044 201D     		adds	r0, r4, #4
 279 0046 FFF7FEFF 		bl	strextract
 280              	.LVL24:
 281 004a 08B1     		cbz	r0, .L23
 129:SDI12.c       ****     }
 282              		.loc 1 129 0
 283 004c 0120     		movs	r0, #1
 284 004e 00E0     		b	.L22
 285              	.L23:
 132:SDI12.c       **** }
 286              		.loc 1 132 0
 287 0050 0020     		movs	r0, #0
 288              	.L22:
 133:SDI12.c       **** 
 289              		.loc 1 133 0
 290 0052 02B0     		add	sp, sp, #8
 291              		.cfi_def_cfa_offset 16
 292              		@ sp needed
 293 0054 70BD     		pop	{r4, r5, r6, pc}
 294              	.L26:
 295 0056 00BF     		.align	2
 296              	.L25:
 297 0058 00000000 		.word	.LANCHOR0
 298 005c 0C000000 		.word	.LC2
 299 0060 00000000 		.word	.LC0
 300 0064 04000000 		.word	.LC1
 301 0068 10000000 		.word	.LC3
 302              		.cfi_endproc
 303              	.LFE69:
 304              		.size	SDI12_is_active, .-SDI12_is_active
 305              		.section	.text.SDI12_change_address,"ax",%progbits
 306              		.align	2
 307              		.global	SDI12_change_address
 308              		.thumb
 309              		.thumb_func
 310              		.type	SDI12_change_address, %function
 311              	SDI12_change_address:
 312              	.LFB70:
 143:SDI12.c       ****  
 313              		.loc 1 143 0
 314              		.cfi_startproc
 315              		@ args = 0, pretend = 0, frame = 0
 316              		@ frame_needed = 0, uses_anonymous_args = 0
 317              	.LVL25:
 318 0000 F0B5     		push	{r4, r5, r6, r7, lr}
 319              		.cfi_def_cfa_offset 20
 320              		.cfi_offset 4, -20
 321              		.cfi_offset 5, -16
 322              		.cfi_offset 6, -12
 323              		.cfi_offset 7, -8
ARM GAS  C:\Users\mame\AppData\Local\Temp\ccpggl3x.s 			page 15


 324              		.cfi_offset 14, -4
 325 0002 83B0     		sub	sp, sp, #12
 326              		.cfi_def_cfa_offset 32
 327 0004 0546     		mov	r5, r0
 328 0006 0C46     		mov	r4, r1
 146:SDI12.c       ****     sprintf(command,"%s%s%s%s",(*sensor).address,CHANGE_ADDR,new_address,"!");
 329              		.loc 1 146 0
 330 0008 1E4E     		ldr	r6, .L33
 331 000a 06F58477 		add	r7, r6, #264
 332 000e 3846     		mov	r0, r7
 333              	.LVL26:
 334 0010 FFF7FEFF 		bl	clear_str
 335              	.LVL27:
 147:SDI12.c       ****     
 336              		.loc 1 147 0
 337 0014 1C4B     		ldr	r3, .L33+4
 338 0016 0193     		str	r3, [sp, #4]
 339 0018 0094     		str	r4, [sp]
 340 001a 1C4B     		ldr	r3, .L33+8
 341 001c 2A68     		ldr	r2, [r5]
 342 001e 1C49     		ldr	r1, .L33+12
 343 0020 3846     		mov	r0, r7
 344 0022 FFF7FEFF 		bl	sprintf
 345              	.LVL28:
 149:SDI12.c       ****     SDI12_send_command(command);    
 346              		.loc 1 149 0
 347 0026 FFF7FEFF 		bl	SDI12_uart_clear_string
 348              	.LVL29:
 150:SDI12.c       ****         
 349              		.loc 1 150 0
 350 002a 3846     		mov	r0, r7
 351 002c FFF7FEFF 		bl	SDI12_send_command
 352              	.LVL30:
 154:SDI12.c       ****     sprintf(value_str, "%s\r\n", new_address);
 353              		.loc 1 154 0
 354 0030 06F5B677 		add	r7, r6, #364
 355 0034 3846     		mov	r0, r7
 356 0036 FFF7FEFF 		bl	clear_str
 357              	.LVL31:
 155:SDI12.c       ****     for (i = 0; i < 200; i++) { 
 358              		.loc 1 155 0
 359 003a 2246     		mov	r2, r4
 360 003c 1549     		ldr	r1, .L33+16
 361 003e 3846     		mov	r0, r7
 362 0040 FFF7FEFF 		bl	sprintf
 363              	.LVL32:
 156:SDI12.c       ****         CyDelay(5u);
 364              		.loc 1 156 0
 365 0044 0023     		movs	r3, #0
 366 0046 86F8D031 		strb	r3, [r6, #464]
 367 004a 12E0     		b	.L28
 368              	.L31:
 157:SDI12.c       ****         if ( strstr(SDI12_uart_buf, value_str) ) {
 369              		.loc 1 157 0
 370 004c 0520     		movs	r0, #5
 371 004e FFF7FEFF 		bl	CyDelay
 372              	.LVL33:
ARM GAS  C:\Users\mame\AppData\Local\Temp\ccpggl3x.s 			page 16


 158:SDI12.c       ****             (*sensor).address = new_address;
 373              		.loc 1 158 0
 374 0052 0C48     		ldr	r0, .L33
 375 0054 00F5B671 		add	r1, r0, #364
 376 0058 0430     		adds	r0, r0, #4
 377 005a FFF7FEFF 		bl	strstr
 378              	.LVL34:
 379 005e 10B1     		cbz	r0, .L29
 159:SDI12.c       ****             return 1u;
 380              		.loc 1 159 0
 381 0060 2C60     		str	r4, [r5]
 160:SDI12.c       ****         }
 382              		.loc 1 160 0
 383 0062 0120     		movs	r0, #1
 384 0064 0BE0     		b	.L30
 385              	.L29:
 156:SDI12.c       ****         CyDelay(5u);
 386              		.loc 1 156 0 discriminator 2
 387 0066 074A     		ldr	r2, .L33
 388 0068 92F8D031 		ldrb	r3, [r2, #464]	@ zero_extendqisi2
 389 006c 0133     		adds	r3, r3, #1
 390 006e 82F8D031 		strb	r3, [r2, #464]
 391              	.L28:
 156:SDI12.c       ****         CyDelay(5u);
 392              		.loc 1 156 0 is_stmt 0 discriminator 1
 393 0072 044B     		ldr	r3, .L33
 394 0074 93F8D031 		ldrb	r3, [r3, #464]	@ zero_extendqisi2
 395 0078 C72B     		cmp	r3, #199
 396 007a E7D9     		bls	.L31
 164:SDI12.c       **** }
 397              		.loc 1 164 0 is_stmt 1
 398 007c 0020     		movs	r0, #0
 399              	.L30:
 165:SDI12.c       **** 
 400              		.loc 1 165 0
 401 007e 03B0     		add	sp, sp, #12
 402              		.cfi_def_cfa_offset 20
 403              		@ sp needed
 404 0080 F0BD     		pop	{r4, r5, r6, r7, pc}
 405              	.LVL35:
 406              	.L34:
 407 0082 00BF     		.align	2
 408              	.L33:
 409 0084 00000000 		.word	.LANCHOR0
 410 0088 0C000000 		.word	.LC2
 411 008c 14000000 		.word	.LC4
 412 0090 18000000 		.word	.LC5
 413 0094 24000000 		.word	.LC6
 414              		.cfi_endproc
 415              	.LFE70:
 416              		.size	SDI12_change_address, .-SDI12_change_address
 417              		.global	__aeabi_d2uiz
 418              		.global	__aeabi_d2f
 419              		.section	.text.SDI12_take_measurement,"ax",%progbits
 420              		.align	2
 421              		.global	SDI12_take_measurement
 422              		.thumb
ARM GAS  C:\Users\mame\AppData\Local\Temp\ccpggl3x.s 			page 17


 423              		.thumb_func
 424              		.type	SDI12_take_measurement, %function
 425              	SDI12_take_measurement:
 426              	.LFB71:
 175:SDI12.c       ****         
 427              		.loc 1 175 0
 428              		.cfi_startproc
 429              		@ args = 0, pretend = 0, frame = 0
 430              		@ frame_needed = 0, uses_anonymous_args = 0
 431              	.LVL36:
 432 0000 F0B5     		push	{r4, r5, r6, r7, lr}
 433              		.cfi_def_cfa_offset 20
 434              		.cfi_offset 4, -20
 435              		.cfi_offset 5, -16
 436              		.cfi_offset 6, -12
 437              		.cfi_offset 7, -8
 438              		.cfi_offset 14, -4
 439 0002 83B0     		sub	sp, sp, #12
 440              		.cfi_def_cfa_offset 32
 441 0004 0446     		mov	r4, r0
 178:SDI12.c       ****     sprintf(command,"%s%s%s",(*sensor).address,TAKE_MEASUREMENT,"!");
 442              		.loc 1 178 0
 443 0006 664D     		ldr	r5, .L49
 444 0008 05F58476 		add	r6, r5, #264
 445 000c 3046     		mov	r0, r6
 446              	.LVL37:
 447 000e FFF7FEFF 		bl	clear_str
 448              	.LVL38:
 179:SDI12.c       ****     
 449              		.loc 1 179 0
 450 0012 644B     		ldr	r3, .L49+4
 451 0014 0093     		str	r3, [sp]
 452 0016 644B     		ldr	r3, .L49+8
 453 0018 2268     		ldr	r2, [r4]
 454 001a 6449     		ldr	r1, .L49+12
 455 001c 3046     		mov	r0, r6
 456 001e FFF7FEFF 		bl	sprintf
 457              	.LVL39:
 181:SDI12.c       ****     SDI12_send_command(command);
 458              		.loc 1 181 0
 459 0022 FFF7FEFF 		bl	SDI12_uart_clear_string
 460              	.LVL40:
 182:SDI12.c       ****     
 461              		.loc 1 182 0
 462 0026 3046     		mov	r0, r6
 463 0028 FFF7FEFF 		bl	SDI12_send_command
 464              	.LVL41:
 190:SDI12.c       ****     clear_str(delay_str);
 465              		.loc 1 190 0
 466 002c 05F5B670 		add	r0, r5, #364
 467 0030 FFF7FEFF 		bl	clear_str
 468              	.LVL42:
 191:SDI12.c       ****     
 469              		.loc 1 191 0
 470 0034 05F5EA70 		add	r0, r5, #468
 471 0038 FFF7FEFF 		bl	clear_str
 472              	.LVL43:
ARM GAS  C:\Users\mame\AppData\Local\Temp\ccpggl3x.s 			page 18


 195:SDI12.c       ****         CyDelay(5u);
 473              		.loc 1 195 0
 474 003c 0023     		movs	r3, #0
 475 003e 85F8D031 		strb	r3, [r5, #464]
 476 0042 11E0     		b	.L36
 477              	.L38:
 196:SDI12.c       ****         if ( strextract(SDI12_uart_buf, value_str, "!","\r\n") ) {
 478              		.loc 1 196 0
 479 0044 0520     		movs	r0, #5
 480 0046 FFF7FEFF 		bl	CyDelay
 481              	.LVL44:
 197:SDI12.c       ****             break;
 482              		.loc 1 197 0
 483 004a 5548     		ldr	r0, .L49
 484 004c 584B     		ldr	r3, .L49+16
 485 004e 554A     		ldr	r2, .L49+4
 486 0050 00F5B671 		add	r1, r0, #364
 487 0054 0430     		adds	r0, r0, #4
 488 0056 FFF7FEFF 		bl	strextract
 489              	.LVL45:
 490 005a 50B9     		cbnz	r0, .L37
 195:SDI12.c       ****         CyDelay(5u);
 491              		.loc 1 195 0 discriminator 2
 492 005c 504A     		ldr	r2, .L49
 493 005e 92F8D031 		ldrb	r3, [r2, #464]	@ zero_extendqisi2
 494 0062 0133     		adds	r3, r3, #1
 495 0064 82F8D031 		strb	r3, [r2, #464]
 496              	.L36:
 195:SDI12.c       ****         CyDelay(5u);
 497              		.loc 1 195 0 is_stmt 0 discriminator 1
 498 0068 4D4B     		ldr	r3, .L49
 499 006a 93F8D031 		ldrb	r3, [r3, #464]	@ zero_extendqisi2
 500 006e C72B     		cmp	r3, #199
 501 0070 E8D9     		bls	.L38
 502              	.L37:
 212:SDI12.c       ****     ms_delay = ( (uint32) strtod(delay_str,(char**) NULL) ) * 1000u;
 503              		.loc 1 212 0 is_stmt 1
 504 0072 2068     		ldr	r0, [r4]
 505 0074 FFF7FEFF 		bl	strlen
 506              	.LVL46:
 507 0078 494D     		ldr	r5, .L49
 508 007a 05F5B677 		add	r7, r5, #364
 509 007e 05F5EA76 		add	r6, r5, #468
 510 0082 0322     		movs	r2, #3
 511 0084 3918     		adds	r1, r7, r0
 512 0086 3046     		mov	r0, r6
 513 0088 FFF7FEFF 		bl	strncpy
 514              	.LVL47:
 213:SDI12.c       ****     CyDelay(ms_delay);
 515              		.loc 1 213 0
 516 008c 0021     		movs	r1, #0
 517 008e 3046     		mov	r0, r6
 518 0090 FFF7FEFF 		bl	strtod
 519              	.LVL48:
 520 0094 FFF7FEFF 		bl	__aeabi_d2uiz
 521              	.LVL49:
 522 0098 4FF47A73 		mov	r3, #1000
ARM GAS  C:\Users\mame\AppData\Local\Temp\ccpggl3x.s 			page 19


 523 009c 03FB00F0 		mul	r0, r3, r0
 524 00a0 C5F8E001 		str	r0, [r5, #480]
 214:SDI12.c       ****     
 525              		.loc 1 214 0
 526 00a4 FFF7FEFF 		bl	CyDelay
 527              	.LVL50:
 217:SDI12.c       ****     clear_str(value_str);
 528              		.loc 1 217 0
 529 00a8 05F58476 		add	r6, r5, #264
 530 00ac 3046     		mov	r0, r6
 531 00ae FFF7FEFF 		bl	clear_str
 532              	.LVL51:
 218:SDI12.c       ****     sprintf(command,"%s%s%s",(*sensor).address,READ_MEASUREMENT,"!");   
 533              		.loc 1 218 0
 534 00b2 3846     		mov	r0, r7
 535 00b4 FFF7FEFF 		bl	clear_str
 536              	.LVL52:
 219:SDI12.c       ****     
 537              		.loc 1 219 0
 538 00b8 3A4B     		ldr	r3, .L49+4
 539 00ba 0093     		str	r3, [sp]
 540 00bc 3D4B     		ldr	r3, .L49+20
 541 00be 2268     		ldr	r2, [r4]
 542 00c0 3A49     		ldr	r1, .L49+12
 543 00c2 3046     		mov	r0, r6
 544 00c4 FFF7FEFF 		bl	sprintf
 545              	.LVL53:
 221:SDI12.c       ****     SDI12_send_command(command);
 546              		.loc 1 221 0
 547 00c8 FFF7FEFF 		bl	SDI12_uart_clear_string
 548              	.LVL54:
 222:SDI12.c       ****     
 549              		.loc 1 222 0
 550 00cc 3046     		mov	r0, r6
 551 00ce FFF7FEFF 		bl	SDI12_send_command
 552              	.LVL55:
 225:SDI12.c       ****         CyDelay(5u);
 553              		.loc 1 225 0
 554 00d2 0023     		movs	r3, #0
 555 00d4 85F8D031 		strb	r3, [r5, #464]
 556 00d8 11E0     		b	.L39
 557              	.L41:
 226:SDI12.c       ****         
 558              		.loc 1 226 0
 559 00da 0520     		movs	r0, #5
 560 00dc FFF7FEFF 		bl	CyDelay
 561              	.LVL56:
 230:SDI12.c       ****             break;
 562              		.loc 1 230 0
 563 00e0 2F48     		ldr	r0, .L49
 564 00e2 334B     		ldr	r3, .L49+16
 565 00e4 2F4A     		ldr	r2, .L49+4
 566 00e6 00F5B671 		add	r1, r0, #364
 567 00ea 0430     		adds	r0, r0, #4
 568 00ec FFF7FEFF 		bl	strextract
 569              	.LVL57:
 570 00f0 50B9     		cbnz	r0, .L40
ARM GAS  C:\Users\mame\AppData\Local\Temp\ccpggl3x.s 			page 20


 225:SDI12.c       ****         CyDelay(5u);
 571              		.loc 1 225 0 discriminator 2
 572 00f2 2B4A     		ldr	r2, .L49
 573 00f4 92F8D031 		ldrb	r3, [r2, #464]	@ zero_extendqisi2
 574 00f8 0133     		adds	r3, r3, #1
 575 00fa 82F8D031 		strb	r3, [r2, #464]
 576              	.L39:
 225:SDI12.c       ****         CyDelay(5u);
 577              		.loc 1 225 0 is_stmt 0 discriminator 1
 578 00fe 284B     		ldr	r3, .L49
 579 0100 93F8D031 		ldrb	r3, [r3, #464]	@ zero_extendqisi2
 580 0104 C72B     		cmp	r3, #199
 581 0106 E8D9     		bls	.L41
 582              	.L40:
 239:SDI12.c       ****     if (sign == NULL) {
 583              		.loc 1 239 0 is_stmt 1
 584 0108 2B21     		movs	r1, #43
 585 010a 2B48     		ldr	r0, .L49+24
 586 010c FFF7FEFF 		bl	strchr
 587              	.LVL58:
 588 0110 2A4B     		ldr	r3, .L49+28
 589 0112 1860     		str	r0, [r3]
 240:SDI12.c       ****         // If there is no + sign, check for "-"
 590              		.loc 1 240 0
 591 0114 E8B9     		cbnz	r0, .L42
 242:SDI12.c       ****         
 592              		.loc 1 242 0
 593 0116 2D21     		movs	r1, #45
 594 0118 2748     		ldr	r0, .L49+24
 595 011a FFF7FEFF 		bl	strchr
 596              	.LVL59:
 597 011e 274B     		ldr	r3, .L49+28
 598 0120 1860     		str	r0, [r3]
 246:SDI12.c       ****             for (i = 0; i < (*sensor).nvars; i++) {
 599              		.loc 1 246 0
 600 0122 B0B9     		cbnz	r0, .L42
 247:SDI12.c       ****                 (*sensor).values[i] = -9999.0f;
 601              		.loc 1 247 0
 602 0124 0022     		movs	r2, #0
 603 0126 1E4B     		ldr	r3, .L49
 604 0128 83F8D021 		strb	r2, [r3, #464]
 605 012c 09E0     		b	.L43
 606              	.L44:
 248:SDI12.c       ****             }
 607              		.loc 1 248 0 discriminator 3
 608 012e A268     		ldr	r2, [r4, #8]
 609 0130 2349     		ldr	r1, .L49+32
 610 0132 42F82310 		str	r1, [r2, r3, lsl #2]	@ float
 247:SDI12.c       ****                 (*sensor).values[i] = -9999.0f;
 611              		.loc 1 247 0 discriminator 3
 612 0136 1A4A     		ldr	r2, .L49
 613 0138 92F8D031 		ldrb	r3, [r2, #464]	@ zero_extendqisi2
 614 013c 0133     		adds	r3, r3, #1
 615 013e 82F8D031 		strb	r3, [r2, #464]
 616              	.L43:
 247:SDI12.c       ****                 (*sensor).values[i] = -9999.0f;
 617              		.loc 1 247 0 is_stmt 0 discriminator 1
ARM GAS  C:\Users\mame\AppData\Local\Temp\ccpggl3x.s 			page 21


 618 0142 227B     		ldrb	r2, [r4, #12]	@ zero_extendqisi2
 619 0144 164B     		ldr	r3, .L49
 620 0146 93F8D031 		ldrb	r3, [r3, #464]	@ zero_extendqisi2
 621 014a 9A42     		cmp	r2, r3
 622 014c EFD8     		bhi	.L44
 250:SDI12.c       ****         }
 623              		.loc 1 250 0 is_stmt 1
 624 014e 0020     		movs	r0, #0
 625 0150 23E0     		b	.L45
 626              	.L42:
 256:SDI12.c       ****     
 627              		.loc 1 256 0
 628 0152 2068     		ldr	r0, [r4]
 629 0154 FFF7FEFF 		bl	strlen
 630              	.LVL60:
 631 0158 114A     		ldr	r2, .L49
 632 015a 02F5B673 		add	r3, r2, #364
 633 015e 1844     		add	r0, r0, r3
 634 0160 184B     		ldr	r3, .L49+36
 635 0162 1860     		str	r0, [r3]
 259:SDI12.c       ****         (*sensor).values[i] = (float) strtod(ptr_end, &ptr_end);
 636              		.loc 1 259 0
 637 0164 0023     		movs	r3, #0
 638 0166 82F8D031 		strb	r3, [r2, #464]
 639 016a 0FE0     		b	.L46
 640              	.L47:
 260:SDI12.c       ****     }
 641              		.loc 1 260 0 discriminator 3
 642 016c A668     		ldr	r6, [r4, #8]
 643 016e 154B     		ldr	r3, .L49+36
 644 0170 1946     		mov	r1, r3
 645 0172 1868     		ldr	r0, [r3]
 646 0174 FFF7FEFF 		bl	strtod
 647              	.LVL61:
 648 0178 FFF7FEFF 		bl	__aeabi_d2f
 649              	.LVL62:
 650 017c 46F82500 		str	r0, [r6, r5, lsl #2]	@ float
 259:SDI12.c       ****         (*sensor).values[i] = (float) strtod(ptr_end, &ptr_end);
 651              		.loc 1 259 0 discriminator 3
 652 0180 074A     		ldr	r2, .L49
 653 0182 92F8D031 		ldrb	r3, [r2, #464]	@ zero_extendqisi2
 654 0186 0133     		adds	r3, r3, #1
 655 0188 82F8D031 		strb	r3, [r2, #464]
 656              	.L46:
 259:SDI12.c       ****         (*sensor).values[i] = (float) strtod(ptr_end, &ptr_end);
 657              		.loc 1 259 0 is_stmt 0 discriminator 1
 658 018c 237B     		ldrb	r3, [r4, #12]	@ zero_extendqisi2
 659 018e 044A     		ldr	r2, .L49
 660 0190 92F8D051 		ldrb	r5, [r2, #464]	@ zero_extendqisi2
 661 0194 AB42     		cmp	r3, r5
 662 0196 E9D8     		bhi	.L47
 263:SDI12.c       ****     
 663              		.loc 1 263 0 is_stmt 1
 664 0198 0120     		movs	r0, #1
 665              	.L45:
 265:SDI12.c       **** 
 666              		.loc 1 265 0
ARM GAS  C:\Users\mame\AppData\Local\Temp\ccpggl3x.s 			page 22


 667 019a 03B0     		add	sp, sp, #12
 668              		.cfi_def_cfa_offset 20
 669              		@ sp needed
 670 019c F0BD     		pop	{r4, r5, r6, r7, pc}
 671              	.LVL63:
 672              	.L50:
 673 019e 00BF     		.align	2
 674              	.L49:
 675 01a0 00000000 		.word	.LANCHOR0
 676 01a4 0C000000 		.word	.LC2
 677 01a8 2C000000 		.word	.LC7
 678 01ac 04000000 		.word	.LC1
 679 01b0 10000000 		.word	.LC3
 680 01b4 30000000 		.word	.LC8
 681 01b8 6C010000 		.word	.LANCHOR0+364
 682 01bc 00000000 		.word	sign
 683 01c0 003C1CC6 		.word	-971228160
 684 01c4 00000000 		.word	ptr_end
 685              		.cfi_endproc
 686              	.LFE71:
 687              		.size	SDI12_take_measurement, .-SDI12_take_measurement
 688              		.section	.text.SDI12_take_concurrent_measurement,"ax",%progbits
 689              		.align	2
 690              		.global	SDI12_take_concurrent_measurement
 691              		.thumb
 692              		.thumb_func
 693              		.type	SDI12_take_concurrent_measurement, %function
 694              	SDI12_take_concurrent_measurement:
 695              	.LFB72:
 274:SDI12.c       ****     /* TODO */
 696              		.loc 1 274 0
 697              		.cfi_startproc
 698              		@ args = 0, pretend = 0, frame = 0
 699              		@ frame_needed = 0, uses_anonymous_args = 0
 700              	.LVL64:
 701 0000 08B5     		push	{r3, lr}
 702              		.cfi_def_cfa_offset 8
 703              		.cfi_offset 3, -8
 704              		.cfi_offset 14, -4
 284:SDI12.c       **** }
 705              		.loc 1 284 0
 706 0002 FFF7FEFF 		bl	SDI12_is_active
 707              	.LVL65:
 285:SDI12.c       **** 
 708              		.loc 1 285 0
 709 0006 08BD     		pop	{r3, pc}
 710              		.cfi_endproc
 711              	.LFE72:
 712              		.size	SDI12_take_concurrent_measurement, .-SDI12_take_concurrent_measurement
 713              		.section	.text.SDI12_info,"ax",%progbits
 714              		.align	2
 715              		.global	SDI12_info
 716              		.thumb
 717              		.thumb_func
 718              		.type	SDI12_info, %function
 719              	SDI12_info:
 720              	.LFB73:
ARM GAS  C:\Users\mame\AppData\Local\Temp\ccpggl3x.s 			page 23


 294:SDI12.c       **** 
 721              		.loc 1 294 0
 722              		.cfi_startproc
 723              		@ args = 0, pretend = 0, frame = 0
 724              		@ frame_needed = 0, uses_anonymous_args = 0
 725              	.LVL66:
 726 0000 F0B5     		push	{r4, r5, r6, r7, lr}
 727              		.cfi_def_cfa_offset 20
 728              		.cfi_offset 4, -20
 729              		.cfi_offset 5, -16
 730              		.cfi_offset 6, -12
 731              		.cfi_offset 7, -8
 732              		.cfi_offset 14, -4
 733 0002 83B0     		sub	sp, sp, #12
 734              		.cfi_def_cfa_offset 32
 735 0004 0546     		mov	r5, r0
 297:SDI12.c       ****     sprintf(command,"%s%s%s",(*sensor).address,INFO,"!");
 736              		.loc 1 297 0
 737 0006 324C     		ldr	r4, .L59
 738 0008 04F58476 		add	r6, r4, #264
 739 000c 3046     		mov	r0, r6
 740              	.LVL67:
 741 000e FFF7FEFF 		bl	clear_str
 742              	.LVL68:
 298:SDI12.c       ****     
 743              		.loc 1 298 0
 744 0012 304B     		ldr	r3, .L59+4
 745 0014 0093     		str	r3, [sp]
 746 0016 304B     		ldr	r3, .L59+8
 747 0018 2A68     		ldr	r2, [r5]
 748 001a 3049     		ldr	r1, .L59+12
 749 001c 3046     		mov	r0, r6
 750 001e FFF7FEFF 		bl	sprintf
 751              	.LVL69:
 300:SDI12.c       ****     SDI12_send_command(command);    
 752              		.loc 1 300 0
 753 0022 FFF7FEFF 		bl	SDI12_uart_clear_string
 754              	.LVL70:
 301:SDI12.c       **** 
 755              		.loc 1 301 0
 756 0026 3046     		mov	r0, r6
 757 0028 FFF7FEFF 		bl	SDI12_send_command
 758              	.LVL71:
 303:SDI12.c       ****     
 759              		.loc 1 303 0
 760 002c 04F5B670 		add	r0, r4, #364
 761 0030 FFF7FEFF 		bl	clear_str
 762              	.LVL72:
 307:SDI12.c       ****         CyDelay(5u);
 763              		.loc 1 307 0
 764 0034 0023     		movs	r3, #0
 765 0036 84F8D031 		strb	r3, [r4, #464]
 766 003a 41E0     		b	.L54
 767              	.L57:
 308:SDI12.c       ****         if (strextract(SDI12_uart_buf, value_str, "!" ,"\r\n")) {
 768              		.loc 1 308 0
 769 003c 0520     		movs	r0, #5
ARM GAS  C:\Users\mame\AppData\Local\Temp\ccpggl3x.s 			page 24


 770 003e FFF7FEFF 		bl	CyDelay
 771              	.LVL73:
 309:SDI12.c       ****         // If "\r\n" is in the response, then the sensor is active
 772              		.loc 1 309 0
 773 0042 2348     		ldr	r0, .L59
 774 0044 264B     		ldr	r3, .L59+16
 775 0046 234A     		ldr	r2, .L59+4
 776 0048 00F5B671 		add	r1, r0, #364
 777 004c 0430     		adds	r0, r0, #4
 778 004e FFF7FEFF 		bl	strextract
 779              	.LVL74:
 780 0052 78B3     		cbz	r0, .L55
 312:SDI12.c       ****             // Attempt to parse the information and store in "sensor"
 781              		.loc 1 312 0
 782 0054 234E     		ldr	r6, .L59+20
 783 0056 244C     		ldr	r4, .L59+24
 784 0058 3460     		str	r4, [r6]
 315:SDI12.c       ****             
 785              		.loc 1 315 0
 786 005a 2F46     		mov	r7, r5
 787 005c 57F80D0B 		ldr	r0, [r7], #13
 788 0060 FFF7FEFF 		bl	strlen
 789              	.LVL75:
 790 0064 0444     		add	r4, r4, r0
 791 0066 3460     		str	r4, [r6]
 318:SDI12.c       ****             ptr_end += 2;
 792              		.loc 1 318 0
 793 0068 0222     		movs	r2, #2
 794 006a 2146     		mov	r1, r4
 795 006c 3846     		mov	r0, r7
 796 006e FFF7FEFF 		bl	strncpy
 797              	.LVL76:
 319:SDI12.c       ****             
 798              		.loc 1 319 0
 799 0072 A11C     		adds	r1, r4, #2
 800 0074 3160     		str	r1, [r6]
 322:SDI12.c       ****             ptr_end += 8;
 801              		.loc 1 322 0
 802 0076 0822     		movs	r2, #8
 803 0078 05F11000 		add	r0, r5, #16
 804 007c FFF7FEFF 		bl	strncpy
 805              	.LVL77:
 323:SDI12.c       ****             
 806              		.loc 1 323 0
 807 0080 04F10A01 		add	r1, r4, #10
 808 0084 3160     		str	r1, [r6]
 326:SDI12.c       ****             ptr_end += 6;
 809              		.loc 1 326 0
 810 0086 0622     		movs	r2, #6
 811 0088 05F11900 		add	r0, r5, #25
 812 008c FFF7FEFF 		bl	strncpy
 813              	.LVL78:
 327:SDI12.c       ****             
 814              		.loc 1 327 0
 815 0090 04F11001 		add	r1, r4, #16
 816 0094 3160     		str	r1, [r6]
 330:SDI12.c       ****             ptr_end += 3;
ARM GAS  C:\Users\mame\AppData\Local\Temp\ccpggl3x.s 			page 25


 817              		.loc 1 330 0
 818 0096 0322     		movs	r2, #3
 819 0098 05F12000 		add	r0, r5, #32
 820 009c FFF7FEFF 		bl	strncpy
 821              	.LVL79:
 331:SDI12.c       ****             
 822              		.loc 1 331 0
 823 00a0 04F11301 		add	r1, r4, #19
 824 00a4 3160     		str	r1, [r6]
 334:SDI12.c       ****             
 825              		.loc 1 334 0
 826 00a6 0D22     		movs	r2, #13
 827 00a8 05F12400 		add	r0, r5, #36
 828 00ac FFF7FEFF 		bl	strncpy
 829              	.LVL80:
 337:SDI12.c       ****         }
 830              		.loc 1 337 0
 831 00b0 0120     		movs	r0, #1
 832 00b2 0BE0     		b	.L56
 833              	.L55:
 307:SDI12.c       ****         CyDelay(5u);
 834              		.loc 1 307 0 discriminator 2
 835 00b4 064A     		ldr	r2, .L59
 836 00b6 92F8D031 		ldrb	r3, [r2, #464]	@ zero_extendqisi2
 837 00ba 0133     		adds	r3, r3, #1
 838 00bc 82F8D031 		strb	r3, [r2, #464]
 839              	.L54:
 307:SDI12.c       ****         CyDelay(5u);
 840              		.loc 1 307 0 is_stmt 0 discriminator 1
 841 00c0 034B     		ldr	r3, .L59
 842 00c2 93F8D031 		ldrb	r3, [r3, #464]	@ zero_extendqisi2
 843 00c6 C72B     		cmp	r3, #199
 844 00c8 B8D9     		bls	.L57
 341:SDI12.c       **** }
 845              		.loc 1 341 0 is_stmt 1
 846 00ca 0020     		movs	r0, #0
 847              	.L56:
 342:SDI12.c       **** 
 848              		.loc 1 342 0
 849 00cc 03B0     		add	sp, sp, #12
 850              		.cfi_def_cfa_offset 20
 851              		@ sp needed
 852 00ce F0BD     		pop	{r4, r5, r6, r7, pc}
 853              	.LVL81:
 854              	.L60:
 855              		.align	2
 856              	.L59:
 857 00d0 00000000 		.word	.LANCHOR0
 858 00d4 0C000000 		.word	.LC2
 859 00d8 34000000 		.word	.LC9
 860 00dc 04000000 		.word	.LC1
 861 00e0 10000000 		.word	.LC3
 862 00e4 00000000 		.word	ptr_end
 863 00e8 6C010000 		.word	.LANCHOR0+364
 864              		.cfi_endproc
 865              	.LFE73:
 866              		.size	SDI12_info, .-SDI12_info
ARM GAS  C:\Users\mame\AppData\Local\Temp\ccpggl3x.s 			page 26


 867              		.global	__aeabi_f2d
 868              		.section	.text.zip_SDI12,"ax",%progbits
 869              		.align	2
 870              		.global	zip_SDI12
 871              		.thumb
 872              		.thumb_func
 873              		.type	zip_SDI12, %function
 874              	zip_SDI12:
 875              	.LFB74:
 344:SDI12.c       ****     char output[100] = {'\0'}; // For debugging
 876              		.loc 1 344 0
 877              		.cfi_startproc
 878              		@ args = 0, pretend = 0, frame = 104
 879              		@ frame_needed = 0, uses_anonymous_args = 0
 880              	.LVL82:
 881 0000 2DE9F043 		push	{r4, r5, r6, r7, r8, r9, lr}
 882              		.cfi_def_cfa_offset 28
 883              		.cfi_offset 4, -28
 884              		.cfi_offset 5, -24
 885              		.cfi_offset 6, -20
 886              		.cfi_offset 7, -16
 887              		.cfi_offset 8, -12
 888              		.cfi_offset 9, -8
 889              		.cfi_offset 14, -4
 890 0004 9DB0     		sub	sp, sp, #116
 891              		.cfi_def_cfa_offset 144
 892 0006 8146     		mov	r9, r0
 345:SDI12.c       ****     uint8 i, j, k, valid;
 893              		.loc 1 345 0
 894 0008 6422     		movs	r2, #100
 895 000a 0021     		movs	r1, #0
 896 000c 03A8     		add	r0, sp, #12
 897              	.LVL83:
 898 000e FFF7FEFF 		bl	memset
 899              	.LVL84:
 348:SDI12.c       ****     sensors[1] = GS3;
 900              		.loc 1 348 0
 901 0012 574C     		ldr	r4, .L79
 902 0014 574D     		ldr	r5, .L79+4
 903 0016 2646     		mov	r6, r4
 904 0018 AE46     		mov	lr, r5
 905 001a BEE80F00 		ldmia	lr!, {r0, r1, r2, r3}
 906 001e 0FC6     		stmia	r6!, {r0, r1, r2, r3}
 907 0020 BEE80F00 		ldmia	lr!, {r0, r1, r2, r3}
 908 0024 0FC6     		stmia	r6!, {r0, r1, r2, r3}
 909 0026 BEE80F00 		ldmia	lr!, {r0, r1, r2, r3}
 910 002a 0FC6     		stmia	r6!, {r0, r1, r2, r3}
 911 002c DEF80030 		ldr	r3, [lr]
 912 0030 3360     		str	r3, [r6]
 349:SDI12.c       ****     
 913              		.loc 1 349 0
 914 0032 3434     		adds	r4, r4, #52
 915 0034 3435     		adds	r5, r5, #52
 916 0036 0FCD     		ldmia	r5!, {r0, r1, r2, r3}
 917 0038 0FC4     		stmia	r4!, {r0, r1, r2, r3}
 918 003a 0FCD     		ldmia	r5!, {r0, r1, r2, r3}
 919 003c 0FC4     		stmia	r4!, {r0, r1, r2, r3}
ARM GAS  C:\Users\mame\AppData\Local\Temp\ccpggl3x.s 			page 27


 920 003e 0FCD     		ldmia	r5!, {r0, r1, r2, r3}
 921 0040 0FC4     		stmia	r4!, {r0, r1, r2, r3}
 922 0042 2B68     		ldr	r3, [r5]
 923 0044 2360     		str	r3, [r4]
 351:SDI12.c       ****     SDI12_Power_Write(1u);
 924              		.loc 1 351 0
 925 0046 FFF7FEFF 		bl	SDI12_start
 926              	.LVL85:
 352:SDI12.c       ****       
 927              		.loc 1 352 0
 928 004a 0120     		movs	r0, #1
 929 004c FFF7FEFF 		bl	SDI12_Power_Write
 930              	.LVL86:
 358:SDI12.c       ****         if (0x00000001 & SDI12_flag>>k)  {
 931              		.loc 1 358 0
 932 0050 0026     		movs	r6, #0
 933 0052 80E0     		b	.L62
 934              	.LVL87:
 935              	.L74:
 359:SDI12.c       ****             /*/ Ensure we don't access nonexistent array index
 936              		.loc 1 359 0
 937 0054 3446     		mov	r4, r6
 938 0056 49FA06F3 		asr	r3, r9, r6
 939 005a 13F0010F 		tst	r3, #1
 940 005e 50D1     		bne	.L75
 941 0060 77E0     		b	.L64
 942              	.LVL88:
 943              	.L71:
 371:SDI12.c       ****                 
 944              		.loc 1 371 0
 945 0062 C820     		movs	r0, #200
 946 0064 FFF7FEFF 		bl	CyDelay
 947              	.LVL89:
 373:SDI12.c       ****                 if (valid == 1u){  
 948              		.loc 1 373 0
 949 0068 414A     		ldr	r2, .L79
 950 006a 3423     		movs	r3, #52
 951 006c 03FB0428 		mla	r8, r3, r4, r2
 952 0070 4046     		mov	r0, r8
 953 0072 FFF7FEFF 		bl	SDI12_is_active
 954              	.LVL90:
 374:SDI12.c       ****                     
 955              		.loc 1 374 0
 956 0076 0128     		cmp	r0, #1
 957 0078 35D1     		bne	.L76
 376:SDI12.c       ****                     
 958              		.loc 1 376 0
 959 007a 0020     		movs	r0, #0
 960              	.LVL91:
 961 007c FFF7FEFF 		bl	LED_Write
 962              	.LVL92:
 380:SDI12.c       ****                     valid = SDI12_info(&sensors[k]); 
 963              		.loc 1 380 0
 964 0080 C820     		movs	r0, #200
 965 0082 FFF7FEFF 		bl	CyDelay
 966              	.LVL93:
 381:SDI12.c       ****                     CyDelay(200u);
ARM GAS  C:\Users\mame\AppData\Local\Temp\ccpggl3x.s 			page 28


 967              		.loc 1 381 0
 968 0086 4046     		mov	r0, r8
 969 0088 FFF7FEFF 		bl	SDI12_info
 970              	.LVL94:
 382:SDI12.c       **** 
 971              		.loc 1 382 0
 972 008c C820     		movs	r0, #200
 973 008e FFF7FEFF 		bl	CyDelay
 974              	.LVL95:
 384:SDI12.c       ****                         valid = 1; // Successfully took a measurement
 975              		.loc 1 384 0
 976 0092 4046     		mov	r0, r8
 977 0094 FFF7FEFF 		bl	SDI12_take_measurement
 978              	.LVL96:
 979 0098 70B1     		cbz	r0, .L77
 980              	.LVL97:
 386:SDI12.c       ****                         break;                    
 981              		.loc 1 386 0
 982 009a 0120     		movs	r0, #1
 983 009c FFF7FEFF 		bl	blink_LED
 984              	.LVL98:
 387:SDI12.c       ****                     } else {
 985              		.loc 1 387 0
 986 00a0 32E0     		b	.L67
 987              	.LVL99:
 988              	.L68:
 392:SDI12.c       ****                         }
 989              		.loc 1 392 0 discriminator 3
 990 00a2 3422     		movs	r2, #52
 991 00a4 3249     		ldr	r1, .L79
 992 00a6 02FB0412 		mla	r2, r2, r4, r1
 993 00aa 9268     		ldr	r2, [r2, #8]
 994 00ac 3249     		ldr	r1, .L79+8
 995 00ae 42F82310 		str	r1, [r2, r3, lsl #2]	@ float
 391:SDI12.c       ****                             (sensors[k]).values[j] = (float) valid;
 996              		.loc 1 391 0 discriminator 3
 997 00b2 0133     		adds	r3, r3, #1
 998              	.LVL100:
 999 00b4 DBB2     		uxtb	r3, r3
 1000              	.LVL101:
 1001 00b6 00E0     		b	.L66
 1002              	.LVL102:
 1003              	.L77:
 1004 00b8 0023     		movs	r3, #0
 1005              	.L66:
 1006              	.LVL103:
 391:SDI12.c       ****                             (sensors[k]).values[j] = (float) valid;
 1007              		.loc 1 391 0 is_stmt 0 discriminator 1
 1008 00ba 3422     		movs	r2, #52
 1009 00bc 2C49     		ldr	r1, .L79
 1010 00be 02FB0412 		mla	r2, r2, r4, r1
 1011 00c2 127B     		ldrb	r2, [r2, #12]	@ zero_extendqisi2
 1012 00c4 9342     		cmp	r3, r2
 1013 00c6 ECD3     		bcc	.L68
 394:SDI12.c       ****                     }            
 1014              		.loc 1 394 0 is_stmt 1
 1015 00c8 0420     		movs	r0, #4
ARM GAS  C:\Users\mame\AppData\Local\Temp\ccpggl3x.s 			page 29


 1016 00ca FFF7FEFF 		bl	blink_LED
 1017              	.LVL104:
 1018 00ce 15E0     		b	.L69
 1019              	.LVL105:
 1020              	.L70:
 401:SDI12.c       ****                     }
 1021              		.loc 1 401 0 discriminator 3
 1022 00d0 3422     		movs	r2, #52
 1023 00d2 2749     		ldr	r1, .L79
 1024 00d4 02FB0412 		mla	r2, r2, r4, r1
 1025 00d8 9268     		ldr	r2, [r2, #8]
 1026 00da 2849     		ldr	r1, .L79+12
 1027 00dc 42F82310 		str	r1, [r2, r3, lsl #2]	@ float
 400:SDI12.c       ****                         (sensors[k]).values[j] = (float) valid;
 1028              		.loc 1 400 0 discriminator 3
 1029 00e0 0133     		adds	r3, r3, #1
 1030              	.LVL106:
 1031 00e2 DBB2     		uxtb	r3, r3
 1032              	.LVL107:
 1033 00e4 00E0     		b	.L65
 1034              	.LVL108:
 1035              	.L76:
 1036 00e6 0023     		movs	r3, #0
 1037              	.L65:
 1038              	.LVL109:
 400:SDI12.c       ****                         (sensors[k]).values[j] = (float) valid;
 1039              		.loc 1 400 0 is_stmt 0 discriminator 1
 1040 00e8 3422     		movs	r2, #52
 1041 00ea 2149     		ldr	r1, .L79
 1042 00ec 02FB0412 		mla	r2, r2, r4, r1
 1043 00f0 127B     		ldrb	r2, [r2, #12]	@ zero_extendqisi2
 1044 00f2 9342     		cmp	r3, r2
 1045 00f4 ECD3     		bcc	.L70
 403:SDI12.c       ****                     
 1046              		.loc 1 403 0 is_stmt 1
 1047 00f6 0120     		movs	r0, #1
 1048              	.LVL110:
 1049 00f8 FFF7FEFF 		bl	LED_Write
 1050              	.LVL111:
 1051              	.L69:
 370:SDI12.c       ****                 CyDelay(200u);
 1052              		.loc 1 370 0 discriminator 2
 1053 00fc 0135     		adds	r5, r5, #1
 1054              	.LVL112:
 1055 00fe EDB2     		uxtb	r5, r5
 1056              	.LVL113:
 1057 0100 00E0     		b	.L63
 1058              	.LVL114:
 1059              	.L75:
 1060 0102 0025     		movs	r5, #0
 1061              	.L63:
 1062              	.LVL115:
 370:SDI12.c       ****                 CyDelay(200u);
 1063              		.loc 1 370 0 is_stmt 0 discriminator 1
 1064 0104 312D     		cmp	r5, #49
 1065 0106 ACD9     		bls	.L71
 1066              	.L67:
ARM GAS  C:\Users\mame\AppData\Local\Temp\ccpggl3x.s 			page 30


 408:SDI12.c       ****             
 1067              		.loc 1 408 0 is_stmt 1
 1068 0108 0020     		movs	r0, #0
 1069 010a FFF7FEFF 		bl	LED_Write
 1070              	.LVL116:
 412:SDI12.c       ****             
 1071              		.loc 1 412 0
 1072 010e 03A8     		add	r0, sp, #12
 1073 0110 FFF7FEFF 		bl	clear_str
 1074              	.LVL117:
 415:SDI12.c       ****                 // char[] output is used for debugging purposes
 1075              		.loc 1 415 0
 1076 0114 0025     		movs	r5, #0
 1077              	.LVL118:
 1078 0116 15E0     		b	.L72
 1079              	.LVL119:
 1080              	.L73:
 417:SDI12.c       ****                 
 1081              		.loc 1 417 0 discriminator 3
 1082 0118 3423     		movs	r3, #52
 1083 011a 154A     		ldr	r2, .L79
 1084 011c 03FB0423 		mla	r3, r3, r4, r2
 1085 0120 5A68     		ldr	r2, [r3, #4]
 1086 0122 9B68     		ldr	r3, [r3, #8]
 1087 0124 52F82570 		ldr	r7, [r2, r5, lsl #2]
 1088 0128 53F82500 		ldr	r0, [r3, r5, lsl #2]	@ float
 1089 012c FFF7FEFF 		bl	__aeabi_f2d
 1090              	.LVL120:
 1091 0130 CDE90001 		strd	r0, [sp]
 1092 0134 3B46     		mov	r3, r7
 1093 0136 03AA     		add	r2, sp, #12
 1094 0138 1149     		ldr	r1, .L79+16
 1095 013a 1046     		mov	r0, r2
 1096 013c FFF7FEFF 		bl	sprintf
 1097              	.LVL121:
 415:SDI12.c       ****                 // char[] output is used for debugging purposes
 1098              		.loc 1 415 0 discriminator 3
 1099 0140 0135     		adds	r5, r5, #1
 1100              	.LVL122:
 1101 0142 EDB2     		uxtb	r5, r5
 1102              	.LVL123:
 1103              	.L72:
 415:SDI12.c       ****                 // char[] output is used for debugging purposes
 1104              		.loc 1 415 0 is_stmt 0 discriminator 1
 1105 0144 3423     		movs	r3, #52
 1106 0146 0A4A     		ldr	r2, .L79
 1107 0148 03FB0423 		mla	r3, r3, r4, r2
 1108 014c 1B7B     		ldrb	r3, [r3, #12]	@ zero_extendqisi2
 1109 014e 9D42     		cmp	r5, r3
 1110 0150 E2D3     		bcc	.L73
 1111              	.LVL124:
 1112              	.L64:
 358:SDI12.c       ****         if (0x00000001 & SDI12_flag>>k)  {
 1113              		.loc 1 358 0 is_stmt 1 discriminator 2
 1114 0152 0136     		adds	r6, r6, #1
 1115              	.LVL125:
 1116 0154 F6B2     		uxtb	r6, r6
ARM GAS  C:\Users\mame\AppData\Local\Temp\ccpggl3x.s 			page 31


 1117              	.LVL126:
 1118              	.L62:
 358:SDI12.c       ****         if (0x00000001 & SDI12_flag>>k)  {
 1119              		.loc 1 358 0 is_stmt 0 discriminator 1
 1120 0156 012E     		cmp	r6, #1
 1121 0158 7FF67CAF 		bls	.L74
 430:SDI12.c       ****     SDI12_stop(); 
 1122              		.loc 1 430 0 is_stmt 1
 1123 015c 0020     		movs	r0, #0
 1124 015e FFF7FEFF 		bl	SDI12_Power_Write
 1125              	.LVL127:
 431:SDI12.c       ****     
 1126              		.loc 1 431 0
 1127 0162 FFF7FEFF 		bl	SDI12_stop
 1128              	.LVL128:
 434:SDI12.c       **** 
 1129              		.loc 1 434 0
 1130 0166 0020     		movs	r0, #0
 1131 0168 1DB0     		add	sp, sp, #116
 1132              		.cfi_def_cfa_offset 28
 1133              		@ sp needed
 1134 016a BDE8F083 		pop	{r4, r5, r6, r7, r8, r9, pc}
 1135              	.LVL129:
 1136              	.L80:
 1137 016e 00BF     		.align	2
 1138              	.L79:
 1139 0170 00000000 		.word	sensors
 1140 0174 00000000 		.word	.LANCHOR1
 1141 0178 00007E43 		.word	1132331008
 1142 017c 00007F43 		.word	1132396544
 1143 0180 38000000 		.word	.LC10
 1144              		.cfi_endproc
 1145              	.LFE74:
 1146              		.size	zip_SDI12, .-zip_SDI12
 1147              		.comm	sign,4,4
 1148              		.comm	ptr_end,4,4
 1149              		.global	delay_str
 1150              		.global	value_str
 1151              		.global	command
 1152              		.global	ms_delay
 1153              		.global	i
 1154              		.global	GS3
 1155              		.global	GS3_values
 1156              		.global	GS3_labels
 1157              		.global	solinst
 1158              		.global	values
 1159              		.global	labels
 1160              		.comm	sensors,104,4
 1161              		.data
 1162              		.align	2
 1163              		.set	.LANCHOR1,. + 0
 1164              		.type	solinst, %object
 1165              		.size	solinst, 52
 1166              	solinst:
 1167 0000 60000000 		.word	.LC15
 1168 0004 00000000 		.word	labels
 1169 0008 00000000 		.word	values
ARM GAS  C:\Users\mame\AppData\Local\Temp\ccpggl3x.s 			page 32


 1170 000c 02       		.byte	2
 1171 000d 00000000 		.space	39
 1171      00000000 
 1171      00000000 
 1171      00000000 
 1171      00000000 
 1172              		.type	GS3, %object
 1173              		.size	GS3, 52
 1174              	GS3:
 1175 0034 44000000 		.word	.LC11
 1176 0038 00000000 		.word	GS3_labels
 1177 003c 00000000 		.word	GS3_values
 1178 0040 03       		.byte	3
 1179 0041 00000000 		.space	39
 1179      00000000 
 1179      00000000 
 1179      00000000 
 1179      00000000 
 1180              		.type	GS3_values, %object
 1181              		.size	GS3_values, 12
 1182              	GS3_values:
 1183 0068 0000C2C2 		.word	-1027473408
 1184 006c 0000BEC2 		.word	-1027735552
 1185 0070 CDCCBDC2 		.word	-1027748659
 1186              		.type	GS3_labels, %object
 1187              		.size	GS3_labels, 12
 1188              	GS3_labels:
 1189 0074 48000000 		.word	.LC12
 1190 0078 50000000 		.word	.LC13
 1191 007c 58000000 		.word	.LC14
 1192              		.type	values, %object
 1193              		.size	values, 8
 1194              	values:
 1195 0080 0000C6C2 		.word	-1027211264
 1196 0084 0000C4C2 		.word	-1027342336
 1197              		.type	labels, %object
 1198              		.size	labels, 8
 1199              	labels:
 1200 0088 64000000 		.word	.LC16
 1201 008c 70000000 		.word	.LC17
 1202              		.section	.rodata.str1.4,"aMS",%progbits,1
 1203              		.align	2
 1204              	.LC0:
 1205 0000 00       		.ascii	"\000"
 1206 0001 000000   		.space	3
 1207              	.LC1:
 1208 0004 25732573 		.ascii	"%s%s%s\000"
 1208      257300
 1209 000b 00       		.space	1
 1210              	.LC2:
 1211 000c 2100     		.ascii	"!\000"
 1212 000e 0000     		.space	2
 1213              	.LC3:
 1214 0010 0D0A00   		.ascii	"\015\012\000"
 1215 0013 00       		.space	1
 1216              	.LC4:
 1217 0014 4100     		.ascii	"A\000"
ARM GAS  C:\Users\mame\AppData\Local\Temp\ccpggl3x.s 			page 33


 1218 0016 0000     		.space	2
 1219              	.LC5:
 1220 0018 25732573 		.ascii	"%s%s%s%s\000"
 1220      25732573 
 1220      00
 1221 0021 000000   		.space	3
 1222              	.LC6:
 1223 0024 25730D0A 		.ascii	"%s\015\012\000"
 1223      00
 1224 0029 000000   		.space	3
 1225              	.LC7:
 1226 002c 4D00     		.ascii	"M\000"
 1227 002e 0000     		.space	2
 1228              	.LC8:
 1229 0030 443000   		.ascii	"D0\000"
 1230 0033 00       		.space	1
 1231              	.LC9:
 1232 0034 4900     		.ascii	"I\000"
 1233 0036 0000     		.space	2
 1234              	.LC10:
 1235 0038 25732025 		.ascii	"%s %s %f\000"
 1235      73202566 
 1235      00
 1236 0041 000000   		.space	3
 1237              	.LC11:
 1238 0044 3100     		.ascii	"1\000"
 1239 0046 0000     		.space	2
 1240              	.LC12:
 1241 0048 4753335F 		.ascii	"GS3_1\000"
 1241      3100
 1242 004e 0000     		.space	2
 1243              	.LC13:
 1244 0050 4753335F 		.ascii	"GS3_2\000"
 1244      3200
 1245 0056 0000     		.space	2
 1246              	.LC14:
 1247 0058 4753335F 		.ascii	"GS3_3\000"
 1247      3300
 1248 005e 0000     		.space	2
 1249              	.LC15:
 1250 0060 3000     		.ascii	"0\000"
 1251 0062 0000     		.space	2
 1252              	.LC16:
 1253 0064 736F6C69 		.ascii	"solinst_T\000"
 1253      6E73745F 
 1253      5400
 1254 006e 0000     		.space	2
 1255              	.LC17:
 1256 0070 736F6C69 		.ascii	"solinst_P\000"
 1256      6E73745F 
 1256      5000
 1257              		.bss
 1258              		.align	2
 1259              		.set	.LANCHOR0,. + 0
 1260              		.type	SDI12_buf_idx, %object
 1261              		.size	SDI12_buf_idx, 1
 1262              	SDI12_buf_idx:
ARM GAS  C:\Users\mame\AppData\Local\Temp\ccpggl3x.s 			page 34


 1263 0000 00       		.space	1
 1264 0001 000000   		.space	3
 1265              		.type	SDI12_uart_buf, %object
 1266              		.size	SDI12_uart_buf, 257
 1267              	SDI12_uart_buf:
 1268 0004 00000000 		.space	257
 1268      00000000 
 1268      00000000 
 1268      00000000 
 1268      00000000 
 1269 0105 000000   		.space	3
 1270              		.type	command, %object
 1271              		.size	command, 100
 1272              	command:
 1273 0108 00000000 		.space	100
 1273      00000000 
 1273      00000000 
 1273      00000000 
 1273      00000000 
 1274              		.type	value_str, %object
 1275              		.size	value_str, 100
 1276              	value_str:
 1277 016c 00000000 		.space	100
 1277      00000000 
 1277      00000000 
 1277      00000000 
 1277      00000000 
 1278              		.type	i, %object
 1279              		.size	i, 1
 1280              	i:
 1281 01d0 00       		.space	1
 1282 01d1 000000   		.space	3
 1283              		.type	delay_str, %object
 1284              		.size	delay_str, 10
 1285              	delay_str:
 1286 01d4 00000000 		.space	10
 1286      00000000 
 1286      0000
 1287 01de 0000     		.space	2
 1288              		.type	ms_delay, %object
 1289              		.size	ms_delay, 4
 1290              	ms_delay:
 1291 01e0 00000000 		.space	4
 1292              		.text
 1293              	.Letext0:
 1294              		.file 2 "c:\\program files\\cypress\\psoc creator\\4.1\\psoc creator\\import\\gnu\\arm\\5.4.1\\arm
 1295              		.file 3 "c:\\program files\\cypress\\psoc creator\\4.1\\psoc creator\\import\\gnu\\arm\\5.4.1\\arm
 1296              		.file 4 "Generated_Source\\PSoC5/cytypes.h"
 1297              		.file 5 "SDI12.h"
 1298              		.file 6 "Generated_Source\\PSoC5/core_cm3.h"
 1299              		.file 7 "Generated_Source\\PSoC5/SDI12_UART.h"
 1300              		.file 8 "Generated_Source\\PSoC5/isr_SDI12.h"
 1301              		.file 9 "Generated_Source\\PSoC5/SDI12_control_reg.h"
 1302              		.file 10 "Generated_Source\\PSoC5/CyLib.h"
 1303              		.file 11 "strlib.h"
 1304              		.file 12 "c:\\program files\\cypress\\psoc creator\\4.1\\psoc creator\\import\\gnu\\arm\\5.4.1\\ar
 1305              		.file 13 "c:\\program files\\cypress\\psoc creator\\4.1\\psoc creator\\import\\gnu\\arm\\5.4.1\\ar
ARM GAS  C:\Users\mame\AppData\Local\Temp\ccpggl3x.s 			page 35


 1306              		.file 14 "c:\\program files\\cypress\\psoc creator\\4.1\\psoc creator\\import\\gnu\\arm\\5.4.1\\ar
 1307              		.file 15 "Generated_Source\\PSoC5/SDI12_Power.h"
 1308              		.file 16 "Generated_Source\\PSoC5/LED.h"
 1309              		.file 17 "misc.h"
 1310              		.file 18 "<built-in>"
 1311              		.section	.debug_info,"",%progbits
 1312              	.Ldebug_info0:
 1313 0000 620D0000 		.4byte	0xd62
 1314 0004 0400     		.2byte	0x4
 1315 0006 00000000 		.4byte	.Ldebug_abbrev0
 1316 000a 04       		.byte	0x4
 1317 000b 01       		.uleb128 0x1
 1318 000c DB030000 		.4byte	.LASF80
 1319 0010 0C       		.byte	0xc
 1320 0011 49020000 		.4byte	.LASF81
 1321 0015 AC000000 		.4byte	.LASF82
 1322 0019 00000000 		.4byte	.Ldebug_ranges0+0
 1323 001d 00000000 		.4byte	0
 1324 0021 00000000 		.4byte	.Ldebug_line0
 1325 0025 02       		.uleb128 0x2
 1326 0026 01       		.byte	0x1
 1327 0027 06       		.byte	0x6
 1328 0028 12010000 		.4byte	.LASF0
 1329 002c 03       		.uleb128 0x3
 1330 002d 99010000 		.4byte	.LASF4
 1331 0031 02       		.byte	0x2
 1332 0032 1D       		.byte	0x1d
 1333 0033 37000000 		.4byte	0x37
 1334 0037 02       		.uleb128 0x2
 1335 0038 01       		.byte	0x1
 1336 0039 08       		.byte	0x8
 1337 003a D2010000 		.4byte	.LASF1
 1338 003e 02       		.uleb128 0x2
 1339 003f 02       		.byte	0x2
 1340 0040 05       		.byte	0x5
 1341 0041 3B000000 		.4byte	.LASF2
 1342 0045 02       		.uleb128 0x2
 1343 0046 02       		.byte	0x2
 1344 0047 07       		.byte	0x7
 1345 0048 56020000 		.4byte	.LASF3
 1346 004c 03       		.uleb128 0x3
 1347 004d 24030000 		.4byte	.LASF5
 1348 0051 02       		.byte	0x2
 1349 0052 3F       		.byte	0x3f
 1350 0053 57000000 		.4byte	0x57
 1351 0057 02       		.uleb128 0x2
 1352 0058 04       		.byte	0x4
 1353 0059 05       		.byte	0x5
 1354 005a 69010000 		.4byte	.LASF6
 1355 005e 02       		.uleb128 0x2
 1356 005f 04       		.byte	0x4
 1357 0060 07       		.byte	0x7
 1358 0061 BA020000 		.4byte	.LASF7
 1359 0065 02       		.uleb128 0x2
 1360 0066 08       		.byte	0x8
 1361 0067 05       		.byte	0x5
 1362 0068 4D010000 		.4byte	.LASF8
ARM GAS  C:\Users\mame\AppData\Local\Temp\ccpggl3x.s 			page 36


 1363 006c 02       		.uleb128 0x2
 1364 006d 08       		.byte	0x8
 1365 006e 07       		.byte	0x7
 1366 006f 1E020000 		.4byte	.LASF9
 1367 0073 04       		.uleb128 0x4
 1368 0074 04       		.byte	0x4
 1369 0075 05       		.byte	0x5
 1370 0076 696E7400 		.ascii	"int\000"
 1371 007a 02       		.uleb128 0x2
 1372 007b 04       		.byte	0x4
 1373 007c 07       		.byte	0x7
 1374 007d 35020000 		.4byte	.LASF10
 1375 0081 03       		.uleb128 0x3
 1376 0082 69030000 		.4byte	.LASF11
 1377 0086 03       		.byte	0x3
 1378 0087 18       		.byte	0x18
 1379 0088 2C000000 		.4byte	0x2c
 1380 008c 03       		.uleb128 0x3
 1381 008d 8A020000 		.4byte	.LASF12
 1382 0091 03       		.byte	0x3
 1383 0092 2C       		.byte	0x2c
 1384 0093 4C000000 		.4byte	0x4c
 1385 0097 05       		.uleb128 0x5
 1386 0098 ED000000 		.4byte	.LASF13
 1387 009c 04       		.byte	0x4
 1388 009d 9201     		.2byte	0x192
 1389 009f 37000000 		.4byte	0x37
 1390 00a3 05       		.uleb128 0x5
 1391 00a4 B3020000 		.4byte	.LASF14
 1392 00a8 04       		.byte	0x4
 1393 00a9 9401     		.2byte	0x194
 1394 00ab 5E000000 		.4byte	0x5e
 1395 00af 02       		.uleb128 0x2
 1396 00b0 04       		.byte	0x4
 1397 00b1 04       		.byte	0x4
 1398 00b2 37010000 		.4byte	.LASF15
 1399 00b6 02       		.uleb128 0x2
 1400 00b7 08       		.byte	0x8
 1401 00b8 04       		.byte	0x4
 1402 00b9 A7030000 		.4byte	.LASF16
 1403 00bd 02       		.uleb128 0x2
 1404 00be 01       		.byte	0x1
 1405 00bf 08       		.byte	0x8
 1406 00c0 7E020000 		.4byte	.LASF17
 1407 00c4 02       		.uleb128 0x2
 1408 00c5 08       		.byte	0x8
 1409 00c6 04       		.byte	0x4
 1410 00c7 76000000 		.4byte	.LASF18
 1411 00cb 02       		.uleb128 0x2
 1412 00cc 04       		.byte	0x4
 1413 00cd 07       		.byte	0x7
 1414 00ce 45000000 		.4byte	.LASF19
 1415 00d2 06       		.uleb128 0x6
 1416 00d3 04       		.byte	0x4
 1417 00d4 BD000000 		.4byte	0xbd
 1418 00d8 07       		.uleb128 0x7
 1419 00d9 34       		.byte	0x34
ARM GAS  C:\Users\mame\AppData\Local\Temp\ccpggl3x.s 			page 37


 1420 00da 05       		.byte	0x5
 1421 00db 23       		.byte	0x23
 1422 00dc 4D010000 		.4byte	0x14d
 1423 00e0 08       		.uleb128 0x8
 1424 00e1 83010000 		.4byte	.LASF20
 1425 00e5 05       		.byte	0x5
 1426 00e6 25       		.byte	0x25
 1427 00e7 D2000000 		.4byte	0xd2
 1428 00eb 00       		.byte	0
 1429 00ec 08       		.uleb128 0x8
 1430 00ed 8B010000 		.4byte	.LASF21
 1431 00f1 05       		.byte	0x5
 1432 00f2 26       		.byte	0x26
 1433 00f3 4D010000 		.4byte	0x14d
 1434 00f7 04       		.byte	0x4
 1435 00f8 08       		.uleb128 0x8
 1436 00f9 92010000 		.4byte	.LASF22
 1437 00fd 05       		.byte	0x5
 1438 00fe 27       		.byte	0x27
 1439 00ff 53010000 		.4byte	0x153
 1440 0103 08       		.byte	0x8
 1441 0104 08       		.uleb128 0x8
 1442 0105 77030000 		.4byte	.LASF23
 1443 0109 05       		.byte	0x5
 1444 010a 28       		.byte	0x28
 1445 010b 97000000 		.4byte	0x97
 1446 010f 0C       		.byte	0xc
 1447 0110 08       		.uleb128 0x8
 1448 0111 71040000 		.4byte	.LASF24
 1449 0115 05       		.byte	0x5
 1450 0116 2A       		.byte	0x2a
 1451 0117 59010000 		.4byte	0x159
 1452 011b 0D       		.byte	0xd
 1453 011c 08       		.uleb128 0x8
 1454 011d 79040000 		.4byte	.LASF25
 1455 0121 05       		.byte	0x5
 1456 0122 2B       		.byte	0x2b
 1457 0123 69010000 		.4byte	0x169
 1458 0127 10       		.byte	0x10
 1459 0128 08       		.uleb128 0x8
 1460 0129 71030000 		.4byte	.LASF26
 1461 012d 05       		.byte	0x5
 1462 012e 2C       		.byte	0x2c
 1463 012f 79010000 		.4byte	0x179
 1464 0133 19       		.byte	0x19
 1465 0134 08       		.uleb128 0x8
 1466 0135 1A000000 		.4byte	.LASF27
 1467 0139 05       		.byte	0x5
 1468 013a 2D       		.byte	0x2d
 1469 013b 89010000 		.4byte	0x189
 1470 013f 20       		.byte	0x20
 1471 0140 08       		.uleb128 0x8
 1472 0141 9A020000 		.4byte	.LASF28
 1473 0145 05       		.byte	0x5
 1474 0146 2E       		.byte	0x2e
 1475 0147 99010000 		.4byte	0x199
 1476 014b 24       		.byte	0x24
ARM GAS  C:\Users\mame\AppData\Local\Temp\ccpggl3x.s 			page 38


 1477 014c 00       		.byte	0
 1478 014d 06       		.uleb128 0x6
 1479 014e 04       		.byte	0x4
 1480 014f D2000000 		.4byte	0xd2
 1481 0153 06       		.uleb128 0x6
 1482 0154 04       		.byte	0x4
 1483 0155 AF000000 		.4byte	0xaf
 1484 0159 09       		.uleb128 0x9
 1485 015a BD000000 		.4byte	0xbd
 1486 015e 69010000 		.4byte	0x169
 1487 0162 0A       		.uleb128 0xa
 1488 0163 CB000000 		.4byte	0xcb
 1489 0167 02       		.byte	0x2
 1490 0168 00       		.byte	0
 1491 0169 09       		.uleb128 0x9
 1492 016a BD000000 		.4byte	0xbd
 1493 016e 79010000 		.4byte	0x179
 1494 0172 0A       		.uleb128 0xa
 1495 0173 CB000000 		.4byte	0xcb
 1496 0177 08       		.byte	0x8
 1497 0178 00       		.byte	0
 1498 0179 09       		.uleb128 0x9
 1499 017a BD000000 		.4byte	0xbd
 1500 017e 89010000 		.4byte	0x189
 1501 0182 0A       		.uleb128 0xa
 1502 0183 CB000000 		.4byte	0xcb
 1503 0187 06       		.byte	0x6
 1504 0188 00       		.byte	0
 1505 0189 09       		.uleb128 0x9
 1506 018a BD000000 		.4byte	0xbd
 1507 018e 99010000 		.4byte	0x199
 1508 0192 0A       		.uleb128 0xa
 1509 0193 CB000000 		.4byte	0xcb
 1510 0197 03       		.byte	0x3
 1511 0198 00       		.byte	0
 1512 0199 09       		.uleb128 0x9
 1513 019a BD000000 		.4byte	0xbd
 1514 019e A9010000 		.4byte	0x1a9
 1515 01a2 0A       		.uleb128 0xa
 1516 01a3 CB000000 		.4byte	0xcb
 1517 01a7 0D       		.byte	0xd
 1518 01a8 00       		.byte	0
 1519 01a9 03       		.uleb128 0x3
 1520 01aa 05010000 		.4byte	.LASF29
 1521 01ae 05       		.byte	0x5
 1522 01af 2F       		.byte	0x2f
 1523 01b0 D8000000 		.4byte	0xd8
 1524 01b4 0B       		.uleb128 0xb
 1525 01b5 82000000 		.4byte	.LASF33
 1526 01b9 01       		.byte	0x1
 1527 01ba B401     		.2byte	0x1b4
 1528 01bc 00000000 		.4byte	.LFB75
 1529 01c0 1C000000 		.4byte	.LFE75-.LFB75
 1530 01c4 01       		.uleb128 0x1
 1531 01c5 9C       		.byte	0x9c
 1532 01c6 E4010000 		.4byte	0x1e4
 1533 01ca 0C       		.uleb128 0xc
ARM GAS  C:\Users\mame\AppData\Local\Temp\ccpggl3x.s 			page 39


 1534 01cb 2E030000 		.4byte	.LASF45
 1535 01cf 01       		.byte	0x1
 1536 01d0 B601     		.2byte	0x1b6
 1537 01d2 BD000000 		.4byte	0xbd
 1538 01d6 00000000 		.4byte	.LLST0
 1539 01da 0D       		.uleb128 0xd
 1540 01db 06000000 		.4byte	.LVL0
 1541 01df 710C0000 		.4byte	0xc71
 1542 01e3 00       		.byte	0
 1543 01e4 0E       		.uleb128 0xe
 1544 01e5 BC010000 		.4byte	.LASF30
 1545 01e9 01       		.byte	0x1
 1546 01ea 38       		.byte	0x38
 1547 01eb 00000000 		.4byte	.LFB64
 1548 01ef 14000000 		.4byte	.LFE64-.LFB64
 1549 01f3 01       		.uleb128 0x1
 1550 01f4 9C       		.byte	0x9c
 1551 01f5 16020000 		.4byte	0x216
 1552 01f9 0D       		.uleb128 0xd
 1553 01fa 06000000 		.4byte	.LVL2
 1554 01fe 7C0C0000 		.4byte	0xc7c
 1555 0202 0F       		.uleb128 0xf
 1556 0203 0C000000 		.4byte	.LVL3
 1557 0207 870C0000 		.4byte	0xc87
 1558 020b 10       		.uleb128 0x10
 1559 020c 01       		.uleb128 0x1
 1560 020d 50       		.byte	0x50
 1561 020e 05       		.uleb128 0x5
 1562 020f 03       		.byte	0x3
 1563 0210 00000000 		.4byte	isr_SDI12_data
 1564 0214 00       		.byte	0
 1565 0215 00       		.byte	0
 1566 0216 0E       		.uleb128 0xe
 1567 0217 4E000000 		.4byte	.LASF31
 1568 021b 01       		.byte	0x1
 1569 021c 3D       		.byte	0x3d
 1570 021d 00000000 		.4byte	.LFB65
 1571 0221 0C000000 		.4byte	.LFE65-.LFB65
 1572 0225 01       		.uleb128 0x1
 1573 0226 9C       		.byte	0x9c
 1574 0227 3E020000 		.4byte	0x23e
 1575 022b 0D       		.uleb128 0xd
 1576 022c 06000000 		.4byte	.LVL4
 1577 0230 920C0000 		.4byte	0xc92
 1578 0234 0D       		.uleb128 0xd
 1579 0235 0A000000 		.4byte	.LVL5
 1580 0239 9D0C0000 		.4byte	0xc9d
 1581 023d 00       		.byte	0
 1582 023e 0E       		.uleb128 0xe
 1583 023f 01030000 		.4byte	.LASF32
 1584 0243 01       		.byte	0x1
 1585 0244 45       		.byte	0x45
 1586 0245 00000000 		.4byte	.LFB66
 1587 0249 20000000 		.4byte	.LFE66-.LFB66
 1588 024d 01       		.uleb128 0x1
 1589 024e 9C       		.byte	0x9c
 1590 024f 79020000 		.4byte	0x279
ARM GAS  C:\Users\mame\AppData\Local\Temp\ccpggl3x.s 			page 40


 1591 0253 0D       		.uleb128 0xd
 1592 0254 06000000 		.4byte	.LVL6
 1593 0258 A80C0000 		.4byte	0xca8
 1594 025c 0F       		.uleb128 0xf
 1595 025d 14000000 		.4byte	.LVL7
 1596 0261 B30C0000 		.4byte	0xcb3
 1597 0265 10       		.uleb128 0x10
 1598 0266 01       		.uleb128 0x1
 1599 0267 50       		.byte	0x50
 1600 0268 02       		.uleb128 0x2
 1601 0269 74       		.byte	0x74
 1602 026a 04       		.sleb128 4
 1603 026b 10       		.uleb128 0x10
 1604 026c 01       		.uleb128 0x1
 1605 026d 51       		.byte	0x51
 1606 026e 01       		.uleb128 0x1
 1607 026f 30       		.byte	0x30
 1608 0270 10       		.uleb128 0x10
 1609 0271 01       		.uleb128 0x1
 1610 0272 52       		.byte	0x52
 1611 0273 03       		.uleb128 0x3
 1612 0274 0A       		.byte	0xa
 1613 0275 0101     		.2byte	0x101
 1614 0277 00       		.byte	0
 1615 0278 00       		.byte	0
 1616 0279 11       		.uleb128 0x11
 1617 027a CC020000 		.4byte	.LASF83
 1618 027e 01       		.byte	0x1
 1619 027f 4B       		.byte	0x4b
 1620 0280 D2000000 		.4byte	0xd2
 1621 0284 00000000 		.4byte	.LFB67
 1622 0288 08000000 		.4byte	.LFE67-.LFB67
 1623 028c 01       		.uleb128 0x1
 1624 028d 9C       		.byte	0x9c
 1625 028e 12       		.uleb128 0x12
 1626 028f EE020000 		.4byte	.LASF34
 1627 0293 01       		.byte	0x1
 1628 0294 58       		.byte	0x58
 1629 0295 00000000 		.4byte	.LFB68
 1630 0299 28000000 		.4byte	.LFE68-.LFB68
 1631 029d 01       		.uleb128 0x1
 1632 029e 9C       		.byte	0x9c
 1633 029f 13030000 		.4byte	0x313
 1634 02a3 13       		.uleb128 0x13
 1635 02a4 80040000 		.4byte	.LASF35
 1636 02a8 01       		.byte	0x1
 1637 02a9 58       		.byte	0x58
 1638 02aa D2000000 		.4byte	0xd2
 1639 02ae 13000000 		.4byte	.LLST1
 1640 02b2 14       		.uleb128 0x14
 1641 02b3 0A000000 		.4byte	.LVL10
 1642 02b7 BC0C0000 		.4byte	0xcbc
 1643 02bb C5020000 		.4byte	0x2c5
 1644 02bf 10       		.uleb128 0x10
 1645 02c0 01       		.uleb128 0x1
 1646 02c1 50       		.byte	0x50
 1647 02c2 01       		.uleb128 0x1
ARM GAS  C:\Users\mame\AppData\Local\Temp\ccpggl3x.s 			page 41


 1648 02c3 31       		.byte	0x31
 1649 02c4 00       		.byte	0
 1650 02c5 14       		.uleb128 0x14
 1651 02c6 12000000 		.4byte	.LVL11
 1652 02ca C70C0000 		.4byte	0xcc7
 1653 02ce DA020000 		.4byte	0x2da
 1654 02d2 10       		.uleb128 0x10
 1655 02d3 01       		.uleb128 0x1
 1656 02d4 50       		.byte	0x50
 1657 02d5 03       		.uleb128 0x3
 1658 02d6 0A       		.byte	0xa
 1659 02d7 E02E     		.2byte	0x2ee0
 1660 02d9 00       		.byte	0
 1661 02da 14       		.uleb128 0x14
 1662 02db 18000000 		.4byte	.LVL12
 1663 02df BC0C0000 		.4byte	0xcbc
 1664 02e3 ED020000 		.4byte	0x2ed
 1665 02e7 10       		.uleb128 0x10
 1666 02e8 01       		.uleb128 0x1
 1667 02e9 50       		.byte	0x50
 1668 02ea 01       		.uleb128 0x1
 1669 02eb 30       		.byte	0x30
 1670 02ec 00       		.byte	0
 1671 02ed 14       		.uleb128 0x14
 1672 02ee 20000000 		.4byte	.LVL13
 1673 02f2 C70C0000 		.4byte	0xcc7
 1674 02f6 02030000 		.4byte	0x302
 1675 02fa 10       		.uleb128 0x10
 1676 02fb 01       		.uleb128 0x1
 1677 02fc 50       		.byte	0x50
 1678 02fd 03       		.uleb128 0x3
 1679 02fe 0A       		.byte	0xa
 1680 02ff D020     		.2byte	0x20d0
 1681 0301 00       		.byte	0
 1682 0302 0F       		.uleb128 0xf
 1683 0303 26000000 		.4byte	.LVL14
 1684 0307 D20C0000 		.4byte	0xcd2
 1685 030b 10       		.uleb128 0x10
 1686 030c 01       		.uleb128 0x1
 1687 030d 50       		.byte	0x50
 1688 030e 02       		.uleb128 0x2
 1689 030f 74       		.byte	0x74
 1690 0310 00       		.sleb128 0
 1691 0311 00       		.byte	0
 1692 0312 00       		.byte	0
 1693 0313 15       		.uleb128 0x15
 1694 0314 DD000000 		.4byte	.LASF37
 1695 0318 01       		.byte	0x1
 1696 0319 6D       		.byte	0x6d
 1697 031a 97000000 		.4byte	0x97
 1698 031e 00000000 		.4byte	.LFB69
 1699 0322 6C000000 		.4byte	.LFE69-.LFB69
 1700 0326 01       		.uleb128 0x1
 1701 0327 9C       		.byte	0x9c
 1702 0328 E8030000 		.4byte	0x3e8
 1703 032c 13       		.uleb128 0x13
 1704 032d D6000000 		.4byte	.LASF36
ARM GAS  C:\Users\mame\AppData\Local\Temp\ccpggl3x.s 			page 42


 1705 0331 01       		.byte	0x1
 1706 0332 6D       		.byte	0x6d
 1707 0333 E8030000 		.4byte	0x3e8
 1708 0337 31000000 		.4byte	.LLST2
 1709 033b 14       		.uleb128 0x14
 1710 033c 12000000 		.4byte	.LVL17
 1711 0340 DD0C0000 		.4byte	0xcdd
 1712 0344 4F030000 		.4byte	0x34f
 1713 0348 10       		.uleb128 0x10
 1714 0349 01       		.uleb128 0x1
 1715 034a 50       		.byte	0x50
 1716 034b 02       		.uleb128 0x2
 1717 034c 75       		.byte	0x75
 1718 034d 00       		.sleb128 0
 1719 034e 00       		.byte	0
 1720 034f 14       		.uleb128 0x14
 1721 0350 22000000 		.4byte	.LVL19
 1722 0354 E80C0000 		.4byte	0xce8
 1723 0358 7C030000 		.4byte	0x37c
 1724 035c 10       		.uleb128 0x10
 1725 035d 01       		.uleb128 0x1
 1726 035e 50       		.byte	0x50
 1727 035f 02       		.uleb128 0x2
 1728 0360 75       		.byte	0x75
 1729 0361 00       		.sleb128 0
 1730 0362 10       		.uleb128 0x10
 1731 0363 01       		.uleb128 0x1
 1732 0364 51       		.byte	0x51
 1733 0365 05       		.uleb128 0x5
 1734 0366 03       		.byte	0x3
 1735 0367 04000000 		.4byte	.LC1
 1736 036b 10       		.uleb128 0x10
 1737 036c 01       		.uleb128 0x1
 1738 036d 53       		.byte	0x53
 1739 036e 05       		.uleb128 0x5
 1740 036f 03       		.byte	0x3
 1741 0370 00000000 		.4byte	.LC0
 1742 0374 10       		.uleb128 0x10
 1743 0375 02       		.uleb128 0x2
 1744 0376 7D       		.byte	0x7d
 1745 0377 00       		.sleb128 0
 1746 0378 02       		.uleb128 0x2
 1747 0379 76       		.byte	0x76
 1748 037a 00       		.sleb128 0
 1749 037b 00       		.byte	0
 1750 037c 0D       		.uleb128 0xd
 1751 037d 26000000 		.4byte	.LVL20
 1752 0381 3E020000 		.4byte	0x23e
 1753 0385 14       		.uleb128 0x14
 1754 0386 2C000000 		.4byte	.LVL21
 1755 038a 8E020000 		.4byte	0x28e
 1756 038e 99030000 		.4byte	0x399
 1757 0392 10       		.uleb128 0x10
 1758 0393 01       		.uleb128 0x1
 1759 0394 50       		.byte	0x50
 1760 0395 02       		.uleb128 0x2
 1761 0396 75       		.byte	0x75
ARM GAS  C:\Users\mame\AppData\Local\Temp\ccpggl3x.s 			page 43


 1762 0397 00       		.sleb128 0
 1763 0398 00       		.byte	0
 1764 0399 14       		.uleb128 0x14
 1765 039a 34000000 		.4byte	.LVL22
 1766 039e F30C0000 		.4byte	0xcf3
 1767 03a2 AE030000 		.4byte	0x3ae
 1768 03a6 10       		.uleb128 0x10
 1769 03a7 01       		.uleb128 0x1
 1770 03a8 50       		.byte	0x50
 1771 03a9 03       		.uleb128 0x3
 1772 03aa 0A       		.byte	0xa
 1773 03ab E803     		.2byte	0x3e8
 1774 03ad 00       		.byte	0
 1775 03ae 14       		.uleb128 0x14
 1776 03af 3E000000 		.4byte	.LVL23
 1777 03b3 DD0C0000 		.4byte	0xcdd
 1778 03b7 C2030000 		.4byte	0x3c2
 1779 03bb 10       		.uleb128 0x10
 1780 03bc 01       		.uleb128 0x1
 1781 03bd 50       		.byte	0x50
 1782 03be 02       		.uleb128 0x2
 1783 03bf 75       		.byte	0x75
 1784 03c0 00       		.sleb128 0
 1785 03c1 00       		.byte	0
 1786 03c2 0F       		.uleb128 0xf
 1787 03c3 4A000000 		.4byte	.LVL24
 1788 03c7 FE0C0000 		.4byte	0xcfe
 1789 03cb 10       		.uleb128 0x10
 1790 03cc 01       		.uleb128 0x1
 1791 03cd 50       		.byte	0x50
 1792 03ce 02       		.uleb128 0x2
 1793 03cf 74       		.byte	0x74
 1794 03d0 04       		.sleb128 4
 1795 03d1 10       		.uleb128 0x10
 1796 03d2 01       		.uleb128 0x1
 1797 03d3 51       		.byte	0x51
 1798 03d4 02       		.uleb128 0x2
 1799 03d5 75       		.byte	0x75
 1800 03d6 00       		.sleb128 0
 1801 03d7 10       		.uleb128 0x10
 1802 03d8 01       		.uleb128 0x1
 1803 03d9 52       		.byte	0x52
 1804 03da 02       		.uleb128 0x2
 1805 03db 76       		.byte	0x76
 1806 03dc 00       		.sleb128 0
 1807 03dd 10       		.uleb128 0x10
 1808 03de 01       		.uleb128 0x1
 1809 03df 53       		.byte	0x53
 1810 03e0 05       		.uleb128 0x5
 1811 03e1 03       		.byte	0x3
 1812 03e2 10000000 		.4byte	.LC3
 1813 03e6 00       		.byte	0
 1814 03e7 00       		.byte	0
 1815 03e8 06       		.uleb128 0x6
 1816 03e9 04       		.byte	0x4
 1817 03ea A9010000 		.4byte	0x1a9
 1818 03ee 15       		.uleb128 0x15
ARM GAS  C:\Users\mame\AppData\Local\Temp\ccpggl3x.s 			page 44


 1819 03ef 88040000 		.4byte	.LASF38
 1820 03f3 01       		.byte	0x1
 1821 03f4 8F       		.byte	0x8f
 1822 03f5 97000000 		.4byte	0x97
 1823 03f9 00000000 		.4byte	.LFB70
 1824 03fd 98000000 		.4byte	.LFE70-.LFB70
 1825 0401 01       		.uleb128 0x1
 1826 0402 9C       		.byte	0x9c
 1827 0403 EE040000 		.4byte	0x4ee
 1828 0407 13       		.uleb128 0x13
 1829 0408 D6000000 		.4byte	.LASF36
 1830 040c 01       		.byte	0x1
 1831 040d 8F       		.byte	0x8f
 1832 040e E8030000 		.4byte	0x3e8
 1833 0412 5D000000 		.4byte	.LLST3
 1834 0416 13       		.uleb128 0x13
 1835 0417 0E000000 		.4byte	.LASF39
 1836 041b 01       		.byte	0x1
 1837 041c 8F       		.byte	0x8f
 1838 041d D2000000 		.4byte	0xd2
 1839 0421 89000000 		.4byte	.LLST4
 1840 0425 14       		.uleb128 0x14
 1841 0426 14000000 		.4byte	.LVL27
 1842 042a DD0C0000 		.4byte	0xcdd
 1843 042e 39040000 		.4byte	0x439
 1844 0432 10       		.uleb128 0x10
 1845 0433 01       		.uleb128 0x1
 1846 0434 50       		.byte	0x50
 1847 0435 02       		.uleb128 0x2
 1848 0436 77       		.byte	0x77
 1849 0437 00       		.sleb128 0
 1850 0438 00       		.byte	0
 1851 0439 14       		.uleb128 0x14
 1852 043a 26000000 		.4byte	.LVL28
 1853 043e E80C0000 		.4byte	0xce8
 1854 0442 70040000 		.4byte	0x470
 1855 0446 10       		.uleb128 0x10
 1856 0447 01       		.uleb128 0x1
 1857 0448 50       		.byte	0x50
 1858 0449 02       		.uleb128 0x2
 1859 044a 77       		.byte	0x77
 1860 044b 00       		.sleb128 0
 1861 044c 10       		.uleb128 0x10
 1862 044d 01       		.uleb128 0x1
 1863 044e 51       		.byte	0x51
 1864 044f 05       		.uleb128 0x5
 1865 0450 03       		.byte	0x3
 1866 0451 18000000 		.4byte	.LC5
 1867 0455 10       		.uleb128 0x10
 1868 0456 01       		.uleb128 0x1
 1869 0457 53       		.byte	0x53
 1870 0458 05       		.uleb128 0x5
 1871 0459 03       		.byte	0x3
 1872 045a 14000000 		.4byte	.LC4
 1873 045e 10       		.uleb128 0x10
 1874 045f 02       		.uleb128 0x2
 1875 0460 7D       		.byte	0x7d
ARM GAS  C:\Users\mame\AppData\Local\Temp\ccpggl3x.s 			page 45


 1876 0461 00       		.sleb128 0
 1877 0462 02       		.uleb128 0x2
 1878 0463 74       		.byte	0x74
 1879 0464 00       		.sleb128 0
 1880 0465 10       		.uleb128 0x10
 1881 0466 02       		.uleb128 0x2
 1882 0467 7D       		.byte	0x7d
 1883 0468 04       		.sleb128 4
 1884 0469 05       		.uleb128 0x5
 1885 046a 03       		.byte	0x3
 1886 046b 0C000000 		.4byte	.LC2
 1887 046f 00       		.byte	0
 1888 0470 0D       		.uleb128 0xd
 1889 0471 2A000000 		.4byte	.LVL29
 1890 0475 3E020000 		.4byte	0x23e
 1891 0479 14       		.uleb128 0x14
 1892 047a 30000000 		.4byte	.LVL30
 1893 047e 8E020000 		.4byte	0x28e
 1894 0482 8D040000 		.4byte	0x48d
 1895 0486 10       		.uleb128 0x10
 1896 0487 01       		.uleb128 0x1
 1897 0488 50       		.byte	0x50
 1898 0489 02       		.uleb128 0x2
 1899 048a 77       		.byte	0x77
 1900 048b 00       		.sleb128 0
 1901 048c 00       		.byte	0
 1902 048d 14       		.uleb128 0x14
 1903 048e 3A000000 		.4byte	.LVL31
 1904 0492 DD0C0000 		.4byte	0xcdd
 1905 0496 A1040000 		.4byte	0x4a1
 1906 049a 10       		.uleb128 0x10
 1907 049b 01       		.uleb128 0x1
 1908 049c 50       		.byte	0x50
 1909 049d 02       		.uleb128 0x2
 1910 049e 77       		.byte	0x77
 1911 049f 00       		.sleb128 0
 1912 04a0 00       		.byte	0
 1913 04a1 14       		.uleb128 0x14
 1914 04a2 44000000 		.4byte	.LVL32
 1915 04a6 E80C0000 		.4byte	0xce8
 1916 04aa C4040000 		.4byte	0x4c4
 1917 04ae 10       		.uleb128 0x10
 1918 04af 01       		.uleb128 0x1
 1919 04b0 50       		.byte	0x50
 1920 04b1 02       		.uleb128 0x2
 1921 04b2 77       		.byte	0x77
 1922 04b3 00       		.sleb128 0
 1923 04b4 10       		.uleb128 0x10
 1924 04b5 01       		.uleb128 0x1
 1925 04b6 51       		.byte	0x51
 1926 04b7 05       		.uleb128 0x5
 1927 04b8 03       		.byte	0x3
 1928 04b9 24000000 		.4byte	.LC6
 1929 04bd 10       		.uleb128 0x10
 1930 04be 01       		.uleb128 0x1
 1931 04bf 52       		.byte	0x52
 1932 04c0 02       		.uleb128 0x2
ARM GAS  C:\Users\mame\AppData\Local\Temp\ccpggl3x.s 			page 46


 1933 04c1 74       		.byte	0x74
 1934 04c2 00       		.sleb128 0
 1935 04c3 00       		.byte	0
 1936 04c4 14       		.uleb128 0x14
 1937 04c5 52000000 		.4byte	.LVL33
 1938 04c9 F30C0000 		.4byte	0xcf3
 1939 04cd D7040000 		.4byte	0x4d7
 1940 04d1 10       		.uleb128 0x10
 1941 04d2 01       		.uleb128 0x1
 1942 04d3 50       		.byte	0x50
 1943 04d4 01       		.uleb128 0x1
 1944 04d5 35       		.byte	0x35
 1945 04d6 00       		.byte	0
 1946 04d7 0F       		.uleb128 0xf
 1947 04d8 5E000000 		.4byte	.LVL34
 1948 04dc 090D0000 		.4byte	0xd09
 1949 04e0 10       		.uleb128 0x10
 1950 04e1 01       		.uleb128 0x1
 1951 04e2 50       		.byte	0x50
 1952 04e3 02       		.uleb128 0x2
 1953 04e4 76       		.byte	0x76
 1954 04e5 04       		.sleb128 4
 1955 04e6 10       		.uleb128 0x10
 1956 04e7 01       		.uleb128 0x1
 1957 04e8 51       		.byte	0x51
 1958 04e9 02       		.uleb128 0x2
 1959 04ea 77       		.byte	0x77
 1960 04eb 00       		.sleb128 0
 1961 04ec 00       		.byte	0
 1962 04ed 00       		.byte	0
 1963 04ee 16       		.uleb128 0x16
 1964 04ef 07020000 		.4byte	.LASF40
 1965 04f3 01       		.byte	0x1
 1966 04f4 AF       		.byte	0xaf
 1967 04f5 97000000 		.4byte	0x97
 1968 04f9 00000000 		.4byte	.LFB71
 1969 04fd C8010000 		.4byte	.LFE71-.LFB71
 1970 0501 01       		.uleb128 0x1
 1971 0502 9C       		.byte	0x9c
 1972 0503 30070000 		.4byte	0x730
 1973 0507 13       		.uleb128 0x13
 1974 0508 D6000000 		.4byte	.LASF36
 1975 050c 01       		.byte	0x1
 1976 050d AF       		.byte	0xaf
 1977 050e E8030000 		.4byte	0x3e8
 1978 0512 B5000000 		.4byte	.LLST5
 1979 0516 14       		.uleb128 0x14
 1980 0517 12000000 		.4byte	.LVL38
 1981 051b DD0C0000 		.4byte	0xcdd
 1982 051f 2A050000 		.4byte	0x52a
 1983 0523 10       		.uleb128 0x10
 1984 0524 01       		.uleb128 0x1
 1985 0525 50       		.byte	0x50
 1986 0526 02       		.uleb128 0x2
 1987 0527 76       		.byte	0x76
 1988 0528 00       		.sleb128 0
 1989 0529 00       		.byte	0
ARM GAS  C:\Users\mame\AppData\Local\Temp\ccpggl3x.s 			page 47


 1990 052a 14       		.uleb128 0x14
 1991 052b 22000000 		.4byte	.LVL39
 1992 052f E80C0000 		.4byte	0xce8
 1993 0533 5A050000 		.4byte	0x55a
 1994 0537 10       		.uleb128 0x10
 1995 0538 01       		.uleb128 0x1
 1996 0539 50       		.byte	0x50
 1997 053a 02       		.uleb128 0x2
 1998 053b 76       		.byte	0x76
 1999 053c 00       		.sleb128 0
 2000 053d 10       		.uleb128 0x10
 2001 053e 01       		.uleb128 0x1
 2002 053f 51       		.byte	0x51
 2003 0540 05       		.uleb128 0x5
 2004 0541 03       		.byte	0x3
 2005 0542 04000000 		.4byte	.LC1
 2006 0546 10       		.uleb128 0x10
 2007 0547 01       		.uleb128 0x1
 2008 0548 53       		.byte	0x53
 2009 0549 05       		.uleb128 0x5
 2010 054a 03       		.byte	0x3
 2011 054b 2C000000 		.4byte	.LC7
 2012 054f 10       		.uleb128 0x10
 2013 0550 02       		.uleb128 0x2
 2014 0551 7D       		.byte	0x7d
 2015 0552 00       		.sleb128 0
 2016 0553 05       		.uleb128 0x5
 2017 0554 03       		.byte	0x3
 2018 0555 0C000000 		.4byte	.LC2
 2019 0559 00       		.byte	0
 2020 055a 0D       		.uleb128 0xd
 2021 055b 26000000 		.4byte	.LVL40
 2022 055f 3E020000 		.4byte	0x23e
 2023 0563 14       		.uleb128 0x14
 2024 0564 2C000000 		.4byte	.LVL41
 2025 0568 8E020000 		.4byte	0x28e
 2026 056c 77050000 		.4byte	0x577
 2027 0570 10       		.uleb128 0x10
 2028 0571 01       		.uleb128 0x1
 2029 0572 50       		.byte	0x50
 2030 0573 02       		.uleb128 0x2
 2031 0574 76       		.byte	0x76
 2032 0575 00       		.sleb128 0
 2033 0576 00       		.byte	0
 2034 0577 14       		.uleb128 0x14
 2035 0578 34000000 		.4byte	.LVL42
 2036 057c DD0C0000 		.4byte	0xcdd
 2037 0580 8C050000 		.4byte	0x58c
 2038 0584 10       		.uleb128 0x10
 2039 0585 01       		.uleb128 0x1
 2040 0586 50       		.byte	0x50
 2041 0587 03       		.uleb128 0x3
 2042 0588 75       		.byte	0x75
 2043 0589 EC02     		.sleb128 364
 2044 058b 00       		.byte	0
 2045 058c 14       		.uleb128 0x14
 2046 058d 3C000000 		.4byte	.LVL43
ARM GAS  C:\Users\mame\AppData\Local\Temp\ccpggl3x.s 			page 48


 2047 0591 DD0C0000 		.4byte	0xcdd
 2048 0595 A1050000 		.4byte	0x5a1
 2049 0599 10       		.uleb128 0x10
 2050 059a 01       		.uleb128 0x1
 2051 059b 50       		.byte	0x50
 2052 059c 03       		.uleb128 0x3
 2053 059d 75       		.byte	0x75
 2054 059e D403     		.sleb128 468
 2055 05a0 00       		.byte	0
 2056 05a1 14       		.uleb128 0x14
 2057 05a2 4A000000 		.4byte	.LVL44
 2058 05a6 F30C0000 		.4byte	0xcf3
 2059 05aa B4050000 		.4byte	0x5b4
 2060 05ae 10       		.uleb128 0x10
 2061 05af 01       		.uleb128 0x1
 2062 05b0 50       		.byte	0x50
 2063 05b1 01       		.uleb128 0x1
 2064 05b2 35       		.byte	0x35
 2065 05b3 00       		.byte	0
 2066 05b4 14       		.uleb128 0x14
 2067 05b5 5A000000 		.4byte	.LVL45
 2068 05b9 FE0C0000 		.4byte	0xcfe
 2069 05bd E1050000 		.4byte	0x5e1
 2070 05c1 10       		.uleb128 0x10
 2071 05c2 01       		.uleb128 0x1
 2072 05c3 50       		.byte	0x50
 2073 05c4 02       		.uleb128 0x2
 2074 05c5 75       		.byte	0x75
 2075 05c6 04       		.sleb128 4
 2076 05c7 10       		.uleb128 0x10
 2077 05c8 01       		.uleb128 0x1
 2078 05c9 51       		.byte	0x51
 2079 05ca 03       		.uleb128 0x3
 2080 05cb 75       		.byte	0x75
 2081 05cc EC02     		.sleb128 364
 2082 05ce 10       		.uleb128 0x10
 2083 05cf 01       		.uleb128 0x1
 2084 05d0 52       		.byte	0x52
 2085 05d1 05       		.uleb128 0x5
 2086 05d2 03       		.byte	0x3
 2087 05d3 0C000000 		.4byte	.LC2
 2088 05d7 10       		.uleb128 0x10
 2089 05d8 01       		.uleb128 0x1
 2090 05d9 53       		.byte	0x53
 2091 05da 05       		.uleb128 0x5
 2092 05db 03       		.byte	0x3
 2093 05dc 10000000 		.4byte	.LC3
 2094 05e0 00       		.byte	0
 2095 05e1 0D       		.uleb128 0xd
 2096 05e2 78000000 		.4byte	.LVL46
 2097 05e6 140D0000 		.4byte	0xd14
 2098 05ea 14       		.uleb128 0x14
 2099 05eb 8C000000 		.4byte	.LVL47
 2100 05ef 1F0D0000 		.4byte	0xd1f
 2101 05f3 03060000 		.4byte	0x603
 2102 05f7 10       		.uleb128 0x10
 2103 05f8 01       		.uleb128 0x1
ARM GAS  C:\Users\mame\AppData\Local\Temp\ccpggl3x.s 			page 49


 2104 05f9 50       		.byte	0x50
 2105 05fa 02       		.uleb128 0x2
 2106 05fb 76       		.byte	0x76
 2107 05fc 00       		.sleb128 0
 2108 05fd 10       		.uleb128 0x10
 2109 05fe 01       		.uleb128 0x1
 2110 05ff 52       		.byte	0x52
 2111 0600 01       		.uleb128 0x1
 2112 0601 33       		.byte	0x33
 2113 0602 00       		.byte	0
 2114 0603 14       		.uleb128 0x14
 2115 0604 94000000 		.4byte	.LVL48
 2116 0608 2A0D0000 		.4byte	0xd2a
 2117 060c 1C060000 		.4byte	0x61c
 2118 0610 10       		.uleb128 0x10
 2119 0611 01       		.uleb128 0x1
 2120 0612 50       		.byte	0x50
 2121 0613 02       		.uleb128 0x2
 2122 0614 76       		.byte	0x76
 2123 0615 00       		.sleb128 0
 2124 0616 10       		.uleb128 0x10
 2125 0617 01       		.uleb128 0x1
 2126 0618 51       		.byte	0x51
 2127 0619 01       		.uleb128 0x1
 2128 061a 30       		.byte	0x30
 2129 061b 00       		.byte	0
 2130 061c 0D       		.uleb128 0xd
 2131 061d A8000000 		.4byte	.LVL50
 2132 0621 F30C0000 		.4byte	0xcf3
 2133 0625 14       		.uleb128 0x14
 2134 0626 B2000000 		.4byte	.LVL51
 2135 062a DD0C0000 		.4byte	0xcdd
 2136 062e 39060000 		.4byte	0x639
 2137 0632 10       		.uleb128 0x10
 2138 0633 01       		.uleb128 0x1
 2139 0634 50       		.byte	0x50
 2140 0635 02       		.uleb128 0x2
 2141 0636 76       		.byte	0x76
 2142 0637 00       		.sleb128 0
 2143 0638 00       		.byte	0
 2144 0639 14       		.uleb128 0x14
 2145 063a B8000000 		.4byte	.LVL52
 2146 063e DD0C0000 		.4byte	0xcdd
 2147 0642 4D060000 		.4byte	0x64d
 2148 0646 10       		.uleb128 0x10
 2149 0647 01       		.uleb128 0x1
 2150 0648 50       		.byte	0x50
 2151 0649 02       		.uleb128 0x2
 2152 064a 77       		.byte	0x77
 2153 064b 00       		.sleb128 0
 2154 064c 00       		.byte	0
 2155 064d 14       		.uleb128 0x14
 2156 064e C8000000 		.4byte	.LVL53
 2157 0652 E80C0000 		.4byte	0xce8
 2158 0656 7D060000 		.4byte	0x67d
 2159 065a 10       		.uleb128 0x10
 2160 065b 01       		.uleb128 0x1
ARM GAS  C:\Users\mame\AppData\Local\Temp\ccpggl3x.s 			page 50


 2161 065c 50       		.byte	0x50
 2162 065d 02       		.uleb128 0x2
 2163 065e 76       		.byte	0x76
 2164 065f 00       		.sleb128 0
 2165 0660 10       		.uleb128 0x10
 2166 0661 01       		.uleb128 0x1
 2167 0662 51       		.byte	0x51
 2168 0663 05       		.uleb128 0x5
 2169 0664 03       		.byte	0x3
 2170 0665 04000000 		.4byte	.LC1
 2171 0669 10       		.uleb128 0x10
 2172 066a 01       		.uleb128 0x1
 2173 066b 53       		.byte	0x53
 2174 066c 05       		.uleb128 0x5
 2175 066d 03       		.byte	0x3
 2176 066e 30000000 		.4byte	.LC8
 2177 0672 10       		.uleb128 0x10
 2178 0673 02       		.uleb128 0x2
 2179 0674 7D       		.byte	0x7d
 2180 0675 00       		.sleb128 0
 2181 0676 05       		.uleb128 0x5
 2182 0677 03       		.byte	0x3
 2183 0678 0C000000 		.4byte	.LC2
 2184 067c 00       		.byte	0
 2185 067d 0D       		.uleb128 0xd
 2186 067e CC000000 		.4byte	.LVL54
 2187 0682 3E020000 		.4byte	0x23e
 2188 0686 14       		.uleb128 0x14
 2189 0687 D2000000 		.4byte	.LVL55
 2190 068b 8E020000 		.4byte	0x28e
 2191 068f 9A060000 		.4byte	0x69a
 2192 0693 10       		.uleb128 0x10
 2193 0694 01       		.uleb128 0x1
 2194 0695 50       		.byte	0x50
 2195 0696 02       		.uleb128 0x2
 2196 0697 76       		.byte	0x76
 2197 0698 00       		.sleb128 0
 2198 0699 00       		.byte	0
 2199 069a 14       		.uleb128 0x14
 2200 069b E0000000 		.4byte	.LVL56
 2201 069f F30C0000 		.4byte	0xcf3
 2202 06a3 AD060000 		.4byte	0x6ad
 2203 06a7 10       		.uleb128 0x10
 2204 06a8 01       		.uleb128 0x1
 2205 06a9 50       		.byte	0x50
 2206 06aa 01       		.uleb128 0x1
 2207 06ab 35       		.byte	0x35
 2208 06ac 00       		.byte	0
 2209 06ad 14       		.uleb128 0x14
 2210 06ae F0000000 		.4byte	.LVL57
 2211 06b2 FE0C0000 		.4byte	0xcfe
 2212 06b6 D9060000 		.4byte	0x6d9
 2213 06ba 10       		.uleb128 0x10
 2214 06bb 01       		.uleb128 0x1
 2215 06bc 50       		.byte	0x50
 2216 06bd 02       		.uleb128 0x2
 2217 06be 75       		.byte	0x75
ARM GAS  C:\Users\mame\AppData\Local\Temp\ccpggl3x.s 			page 51


 2218 06bf 04       		.sleb128 4
 2219 06c0 10       		.uleb128 0x10
 2220 06c1 01       		.uleb128 0x1
 2221 06c2 51       		.byte	0x51
 2222 06c3 02       		.uleb128 0x2
 2223 06c4 77       		.byte	0x77
 2224 06c5 00       		.sleb128 0
 2225 06c6 10       		.uleb128 0x10
 2226 06c7 01       		.uleb128 0x1
 2227 06c8 52       		.byte	0x52
 2228 06c9 05       		.uleb128 0x5
 2229 06ca 03       		.byte	0x3
 2230 06cb 0C000000 		.4byte	.LC2
 2231 06cf 10       		.uleb128 0x10
 2232 06d0 01       		.uleb128 0x1
 2233 06d1 53       		.byte	0x53
 2234 06d2 05       		.uleb128 0x5
 2235 06d3 03       		.byte	0x3
 2236 06d4 10000000 		.4byte	.LC3
 2237 06d8 00       		.byte	0
 2238 06d9 14       		.uleb128 0x14
 2239 06da 10010000 		.4byte	.LVL58
 2240 06de 350D0000 		.4byte	0xd35
 2241 06e2 F6060000 		.4byte	0x6f6
 2242 06e6 10       		.uleb128 0x10
 2243 06e7 01       		.uleb128 0x1
 2244 06e8 50       		.byte	0x50
 2245 06e9 05       		.uleb128 0x5
 2246 06ea 03       		.byte	0x3
 2247 06eb 6C010000 		.4byte	.LANCHOR0+364
 2248 06ef 10       		.uleb128 0x10
 2249 06f0 01       		.uleb128 0x1
 2250 06f1 51       		.byte	0x51
 2251 06f2 02       		.uleb128 0x2
 2252 06f3 08       		.byte	0x8
 2253 06f4 2B       		.byte	0x2b
 2254 06f5 00       		.byte	0
 2255 06f6 14       		.uleb128 0x14
 2256 06f7 1E010000 		.4byte	.LVL59
 2257 06fb 350D0000 		.4byte	0xd35
 2258 06ff 13070000 		.4byte	0x713
 2259 0703 10       		.uleb128 0x10
 2260 0704 01       		.uleb128 0x1
 2261 0705 50       		.byte	0x50
 2262 0706 05       		.uleb128 0x5
 2263 0707 03       		.byte	0x3
 2264 0708 6C010000 		.4byte	.LANCHOR0+364
 2265 070c 10       		.uleb128 0x10
 2266 070d 01       		.uleb128 0x1
 2267 070e 51       		.byte	0x51
 2268 070f 02       		.uleb128 0x2
 2269 0710 08       		.byte	0x8
 2270 0711 2D       		.byte	0x2d
 2271 0712 00       		.byte	0
 2272 0713 0D       		.uleb128 0xd
 2273 0714 58010000 		.4byte	.LVL60
 2274 0718 140D0000 		.4byte	0xd14
ARM GAS  C:\Users\mame\AppData\Local\Temp\ccpggl3x.s 			page 52


 2275 071c 0F       		.uleb128 0xf
 2276 071d 78010000 		.4byte	.LVL61
 2277 0721 2A0D0000 		.4byte	0xd2a
 2278 0725 10       		.uleb128 0x10
 2279 0726 01       		.uleb128 0x1
 2280 0727 51       		.byte	0x51
 2281 0728 05       		.uleb128 0x5
 2282 0729 03       		.byte	0x3
 2283 072a 00000000 		.4byte	ptr_end
 2284 072e 00       		.byte	0
 2285 072f 00       		.byte	0
 2286 0730 17       		.uleb128 0x17
 2287 0731 47030000 		.4byte	.LASF41
 2288 0735 01       		.byte	0x1
 2289 0736 1201     		.2byte	0x112
 2290 0738 97000000 		.4byte	0x97
 2291 073c 00000000 		.4byte	.LFB72
 2292 0740 08000000 		.4byte	.LFE72-.LFB72
 2293 0744 01       		.uleb128 0x1
 2294 0745 9C       		.byte	0x9c
 2295 0746 6C070000 		.4byte	0x76c
 2296 074a 18       		.uleb128 0x18
 2297 074b D6000000 		.4byte	.LASF36
 2298 074f 01       		.byte	0x1
 2299 0750 1201     		.2byte	0x112
 2300 0752 E8030000 		.4byte	0x3e8
 2301 0756 E1000000 		.4byte	.LLST6
 2302 075a 0F       		.uleb128 0xf
 2303 075b 06000000 		.4byte	.LVL65
 2304 075f 13030000 		.4byte	0x313
 2305 0763 10       		.uleb128 0x10
 2306 0764 01       		.uleb128 0x1
 2307 0765 50       		.byte	0x50
 2308 0766 03       		.uleb128 0x3
 2309 0767 F3       		.byte	0xf3
 2310 0768 01       		.uleb128 0x1
 2311 0769 50       		.byte	0x50
 2312 076a 00       		.byte	0
 2313 076b 00       		.byte	0
 2314 076c 17       		.uleb128 0x17
 2315 076d 19030000 		.4byte	.LASF42
 2316 0771 01       		.byte	0x1
 2317 0772 2601     		.2byte	0x126
 2318 0774 97000000 		.4byte	0x97
 2319 0778 00000000 		.4byte	.LFB73
 2320 077c EC000000 		.4byte	.LFE73-.LFB73
 2321 0780 01       		.uleb128 0x1
 2322 0781 9C       		.byte	0x9c
 2323 0782 ED080000 		.4byte	0x8ed
 2324 0786 18       		.uleb128 0x18
 2325 0787 D6000000 		.4byte	.LASF36
 2326 078b 01       		.byte	0x1
 2327 078c 2601     		.2byte	0x126
 2328 078e E8030000 		.4byte	0x3e8
 2329 0792 02010000 		.4byte	.LLST7
 2330 0796 14       		.uleb128 0x14
 2331 0797 12000000 		.4byte	.LVL68
ARM GAS  C:\Users\mame\AppData\Local\Temp\ccpggl3x.s 			page 53


 2332 079b DD0C0000 		.4byte	0xcdd
 2333 079f AA070000 		.4byte	0x7aa
 2334 07a3 10       		.uleb128 0x10
 2335 07a4 01       		.uleb128 0x1
 2336 07a5 50       		.byte	0x50
 2337 07a6 02       		.uleb128 0x2
 2338 07a7 76       		.byte	0x76
 2339 07a8 00       		.sleb128 0
 2340 07a9 00       		.byte	0
 2341 07aa 14       		.uleb128 0x14
 2342 07ab 22000000 		.4byte	.LVL69
 2343 07af E80C0000 		.4byte	0xce8
 2344 07b3 DA070000 		.4byte	0x7da
 2345 07b7 10       		.uleb128 0x10
 2346 07b8 01       		.uleb128 0x1
 2347 07b9 50       		.byte	0x50
 2348 07ba 02       		.uleb128 0x2
 2349 07bb 76       		.byte	0x76
 2350 07bc 00       		.sleb128 0
 2351 07bd 10       		.uleb128 0x10
 2352 07be 01       		.uleb128 0x1
 2353 07bf 51       		.byte	0x51
 2354 07c0 05       		.uleb128 0x5
 2355 07c1 03       		.byte	0x3
 2356 07c2 04000000 		.4byte	.LC1
 2357 07c6 10       		.uleb128 0x10
 2358 07c7 01       		.uleb128 0x1
 2359 07c8 53       		.byte	0x53
 2360 07c9 05       		.uleb128 0x5
 2361 07ca 03       		.byte	0x3
 2362 07cb 34000000 		.4byte	.LC9
 2363 07cf 10       		.uleb128 0x10
 2364 07d0 02       		.uleb128 0x2
 2365 07d1 7D       		.byte	0x7d
 2366 07d2 00       		.sleb128 0
 2367 07d3 05       		.uleb128 0x5
 2368 07d4 03       		.byte	0x3
 2369 07d5 0C000000 		.4byte	.LC2
 2370 07d9 00       		.byte	0
 2371 07da 0D       		.uleb128 0xd
 2372 07db 26000000 		.4byte	.LVL70
 2373 07df 3E020000 		.4byte	0x23e
 2374 07e3 14       		.uleb128 0x14
 2375 07e4 2C000000 		.4byte	.LVL71
 2376 07e8 8E020000 		.4byte	0x28e
 2377 07ec F7070000 		.4byte	0x7f7
 2378 07f0 10       		.uleb128 0x10
 2379 07f1 01       		.uleb128 0x1
 2380 07f2 50       		.byte	0x50
 2381 07f3 02       		.uleb128 0x2
 2382 07f4 76       		.byte	0x76
 2383 07f5 00       		.sleb128 0
 2384 07f6 00       		.byte	0
 2385 07f7 14       		.uleb128 0x14
 2386 07f8 34000000 		.4byte	.LVL72
 2387 07fc DD0C0000 		.4byte	0xcdd
 2388 0800 0C080000 		.4byte	0x80c
ARM GAS  C:\Users\mame\AppData\Local\Temp\ccpggl3x.s 			page 54


 2389 0804 10       		.uleb128 0x10
 2390 0805 01       		.uleb128 0x1
 2391 0806 50       		.byte	0x50
 2392 0807 03       		.uleb128 0x3
 2393 0808 74       		.byte	0x74
 2394 0809 EC02     		.sleb128 364
 2395 080b 00       		.byte	0
 2396 080c 14       		.uleb128 0x14
 2397 080d 42000000 		.4byte	.LVL73
 2398 0811 F30C0000 		.4byte	0xcf3
 2399 0815 1F080000 		.4byte	0x81f
 2400 0819 10       		.uleb128 0x10
 2401 081a 01       		.uleb128 0x1
 2402 081b 50       		.byte	0x50
 2403 081c 01       		.uleb128 0x1
 2404 081d 35       		.byte	0x35
 2405 081e 00       		.byte	0
 2406 081f 14       		.uleb128 0x14
 2407 0820 52000000 		.4byte	.LVL74
 2408 0824 FE0C0000 		.4byte	0xcfe
 2409 0828 4C080000 		.4byte	0x84c
 2410 082c 10       		.uleb128 0x10
 2411 082d 01       		.uleb128 0x1
 2412 082e 50       		.byte	0x50
 2413 082f 02       		.uleb128 0x2
 2414 0830 74       		.byte	0x74
 2415 0831 04       		.sleb128 4
 2416 0832 10       		.uleb128 0x10
 2417 0833 01       		.uleb128 0x1
 2418 0834 51       		.byte	0x51
 2419 0835 03       		.uleb128 0x3
 2420 0836 74       		.byte	0x74
 2421 0837 EC02     		.sleb128 364
 2422 0839 10       		.uleb128 0x10
 2423 083a 01       		.uleb128 0x1
 2424 083b 52       		.byte	0x52
 2425 083c 05       		.uleb128 0x5
 2426 083d 03       		.byte	0x3
 2427 083e 0C000000 		.4byte	.LC2
 2428 0842 10       		.uleb128 0x10
 2429 0843 01       		.uleb128 0x1
 2430 0844 53       		.byte	0x53
 2431 0845 05       		.uleb128 0x5
 2432 0846 03       		.byte	0x3
 2433 0847 10000000 		.4byte	.LC3
 2434 084b 00       		.byte	0
 2435 084c 0D       		.uleb128 0xd
 2436 084d 64000000 		.4byte	.LVL75
 2437 0851 140D0000 		.4byte	0xd14
 2438 0855 14       		.uleb128 0x14
 2439 0856 72000000 		.4byte	.LVL76
 2440 085a 1F0D0000 		.4byte	0xd1f
 2441 085e 74080000 		.4byte	0x874
 2442 0862 10       		.uleb128 0x10
 2443 0863 01       		.uleb128 0x1
 2444 0864 50       		.byte	0x50
 2445 0865 02       		.uleb128 0x2
ARM GAS  C:\Users\mame\AppData\Local\Temp\ccpggl3x.s 			page 55


 2446 0866 77       		.byte	0x77
 2447 0867 00       		.sleb128 0
 2448 0868 10       		.uleb128 0x10
 2449 0869 01       		.uleb128 0x1
 2450 086a 51       		.byte	0x51
 2451 086b 02       		.uleb128 0x2
 2452 086c 74       		.byte	0x74
 2453 086d 00       		.sleb128 0
 2454 086e 10       		.uleb128 0x10
 2455 086f 01       		.uleb128 0x1
 2456 0870 52       		.byte	0x52
 2457 0871 01       		.uleb128 0x1
 2458 0872 32       		.byte	0x32
 2459 0873 00       		.byte	0
 2460 0874 14       		.uleb128 0x14
 2461 0875 80000000 		.4byte	.LVL77
 2462 0879 1F0D0000 		.4byte	0xd1f
 2463 087d 93080000 		.4byte	0x893
 2464 0881 10       		.uleb128 0x10
 2465 0882 01       		.uleb128 0x1
 2466 0883 50       		.byte	0x50
 2467 0884 02       		.uleb128 0x2
 2468 0885 75       		.byte	0x75
 2469 0886 10       		.sleb128 16
 2470 0887 10       		.uleb128 0x10
 2471 0888 01       		.uleb128 0x1
 2472 0889 51       		.byte	0x51
 2473 088a 02       		.uleb128 0x2
 2474 088b 74       		.byte	0x74
 2475 088c 02       		.sleb128 2
 2476 088d 10       		.uleb128 0x10
 2477 088e 01       		.uleb128 0x1
 2478 088f 52       		.byte	0x52
 2479 0890 01       		.uleb128 0x1
 2480 0891 38       		.byte	0x38
 2481 0892 00       		.byte	0
 2482 0893 14       		.uleb128 0x14
 2483 0894 90000000 		.4byte	.LVL78
 2484 0898 1F0D0000 		.4byte	0xd1f
 2485 089c B2080000 		.4byte	0x8b2
 2486 08a0 10       		.uleb128 0x10
 2487 08a1 01       		.uleb128 0x1
 2488 08a2 50       		.byte	0x50
 2489 08a3 02       		.uleb128 0x2
 2490 08a4 75       		.byte	0x75
 2491 08a5 19       		.sleb128 25
 2492 08a6 10       		.uleb128 0x10
 2493 08a7 01       		.uleb128 0x1
 2494 08a8 51       		.byte	0x51
 2495 08a9 02       		.uleb128 0x2
 2496 08aa 74       		.byte	0x74
 2497 08ab 0A       		.sleb128 10
 2498 08ac 10       		.uleb128 0x10
 2499 08ad 01       		.uleb128 0x1
 2500 08ae 52       		.byte	0x52
 2501 08af 01       		.uleb128 0x1
 2502 08b0 36       		.byte	0x36
ARM GAS  C:\Users\mame\AppData\Local\Temp\ccpggl3x.s 			page 56


 2503 08b1 00       		.byte	0
 2504 08b2 14       		.uleb128 0x14
 2505 08b3 A0000000 		.4byte	.LVL79
 2506 08b7 1F0D0000 		.4byte	0xd1f
 2507 08bb D1080000 		.4byte	0x8d1
 2508 08bf 10       		.uleb128 0x10
 2509 08c0 01       		.uleb128 0x1
 2510 08c1 50       		.byte	0x50
 2511 08c2 02       		.uleb128 0x2
 2512 08c3 75       		.byte	0x75
 2513 08c4 20       		.sleb128 32
 2514 08c5 10       		.uleb128 0x10
 2515 08c6 01       		.uleb128 0x1
 2516 08c7 51       		.byte	0x51
 2517 08c8 02       		.uleb128 0x2
 2518 08c9 74       		.byte	0x74
 2519 08ca 10       		.sleb128 16
 2520 08cb 10       		.uleb128 0x10
 2521 08cc 01       		.uleb128 0x1
 2522 08cd 52       		.byte	0x52
 2523 08ce 01       		.uleb128 0x1
 2524 08cf 33       		.byte	0x33
 2525 08d0 00       		.byte	0
 2526 08d1 0F       		.uleb128 0xf
 2527 08d2 B0000000 		.4byte	.LVL80
 2528 08d6 1F0D0000 		.4byte	0xd1f
 2529 08da 10       		.uleb128 0x10
 2530 08db 01       		.uleb128 0x1
 2531 08dc 50       		.byte	0x50
 2532 08dd 02       		.uleb128 0x2
 2533 08de 75       		.byte	0x75
 2534 08df 24       		.sleb128 36
 2535 08e0 10       		.uleb128 0x10
 2536 08e1 01       		.uleb128 0x1
 2537 08e2 51       		.byte	0x51
 2538 08e3 02       		.uleb128 0x2
 2539 08e4 74       		.byte	0x74
 2540 08e5 13       		.sleb128 19
 2541 08e6 10       		.uleb128 0x10
 2542 08e7 01       		.uleb128 0x1
 2543 08e8 52       		.byte	0x52
 2544 08e9 01       		.uleb128 0x1
 2545 08ea 3D       		.byte	0x3d
 2546 08eb 00       		.byte	0
 2547 08ec 00       		.byte	0
 2548 08ed 19       		.uleb128 0x19
 2549 08ee E4020000 		.4byte	.LASF43
 2550 08f2 01       		.byte	0x1
 2551 08f3 5801     		.2byte	0x158
 2552 08f5 97000000 		.4byte	0x97
 2553 08f9 00000000 		.4byte	.LFB74
 2554 08fd 84010000 		.4byte	.LFE74-.LFB74
 2555 0901 01       		.uleb128 0x1
 2556 0902 9C       		.byte	0x9c
 2557 0903 D10A0000 		.4byte	0xad1
 2558 0907 18       		.uleb128 0x18
 2559 0908 AE030000 		.4byte	.LASF44
ARM GAS  C:\Users\mame\AppData\Local\Temp\ccpggl3x.s 			page 57


 2560 090c 01       		.byte	0x1
 2561 090d 5801     		.2byte	0x158
 2562 090f 73000000 		.4byte	0x73
 2563 0913 2E010000 		.4byte	.LLST8
 2564 0917 1A       		.uleb128 0x1a
 2565 0918 A0030000 		.4byte	.LASF46
 2566 091c 01       		.byte	0x1
 2567 091d 5901     		.2byte	0x159
 2568 091f D10A0000 		.4byte	0xad1
 2569 0923 03       		.uleb128 0x3
 2570 0924 91       		.byte	0x91
 2571 0925 FC7E     		.sleb128 -132
 2572 0927 1B       		.uleb128 0x1b
 2573 0928 6900     		.ascii	"i\000"
 2574 092a 01       		.byte	0x1
 2575 092b 5A01     		.2byte	0x15a
 2576 092d 97000000 		.4byte	0x97
 2577 0931 5A010000 		.4byte	.LLST9
 2578 0935 1B       		.uleb128 0x1b
 2579 0936 6A00     		.ascii	"j\000"
 2580 0938 01       		.byte	0x1
 2581 0939 5A01     		.2byte	0x15a
 2582 093b 97000000 		.4byte	0x97
 2583 093f 83010000 		.4byte	.LLST10
 2584 0943 1B       		.uleb128 0x1b
 2585 0944 6B00     		.ascii	"k\000"
 2586 0946 01       		.byte	0x1
 2587 0947 5A01     		.2byte	0x15a
 2588 0949 97000000 		.4byte	0x97
 2589 094d EF010000 		.4byte	.LLST11
 2590 0951 0C       		.uleb128 0xc
 2591 0952 00000000 		.4byte	.LASF47
 2592 0956 01       		.byte	0x1
 2593 0957 5A01     		.2byte	0x15a
 2594 0959 97000000 		.4byte	0x97
 2595 095d 19020000 		.4byte	.LLST12
 2596 0961 14       		.uleb128 0x14
 2597 0962 12000000 		.4byte	.LVL84
 2598 0966 B30C0000 		.4byte	0xcb3
 2599 096a 81090000 		.4byte	0x981
 2600 096e 10       		.uleb128 0x10
 2601 096f 01       		.uleb128 0x1
 2602 0970 50       		.byte	0x50
 2603 0971 03       		.uleb128 0x3
 2604 0972 91       		.byte	0x91
 2605 0973 FC7E     		.sleb128 -132
 2606 0975 10       		.uleb128 0x10
 2607 0976 01       		.uleb128 0x1
 2608 0977 51       		.byte	0x51
 2609 0978 01       		.uleb128 0x1
 2610 0979 30       		.byte	0x30
 2611 097a 10       		.uleb128 0x10
 2612 097b 01       		.uleb128 0x1
 2613 097c 52       		.byte	0x52
 2614 097d 02       		.uleb128 0x2
 2615 097e 08       		.byte	0x8
 2616 097f 64       		.byte	0x64
ARM GAS  C:\Users\mame\AppData\Local\Temp\ccpggl3x.s 			page 58


 2617 0980 00       		.byte	0
 2618 0981 0D       		.uleb128 0xd
 2619 0982 4A000000 		.4byte	.LVL85
 2620 0986 E4010000 		.4byte	0x1e4
 2621 098a 14       		.uleb128 0x14
 2622 098b 50000000 		.4byte	.LVL86
 2623 098f 440D0000 		.4byte	0xd44
 2624 0993 9D090000 		.4byte	0x99d
 2625 0997 10       		.uleb128 0x10
 2626 0998 01       		.uleb128 0x1
 2627 0999 50       		.byte	0x50
 2628 099a 01       		.uleb128 0x1
 2629 099b 31       		.byte	0x31
 2630 099c 00       		.byte	0
 2631 099d 14       		.uleb128 0x14
 2632 099e 68000000 		.4byte	.LVL89
 2633 09a2 F30C0000 		.4byte	0xcf3
 2634 09a6 B1090000 		.4byte	0x9b1
 2635 09aa 10       		.uleb128 0x10
 2636 09ab 01       		.uleb128 0x1
 2637 09ac 50       		.byte	0x50
 2638 09ad 02       		.uleb128 0x2
 2639 09ae 08       		.byte	0x8
 2640 09af C8       		.byte	0xc8
 2641 09b0 00       		.byte	0
 2642 09b1 14       		.uleb128 0x14
 2643 09b2 76000000 		.4byte	.LVL90
 2644 09b6 13030000 		.4byte	0x313
 2645 09ba C5090000 		.4byte	0x9c5
 2646 09be 10       		.uleb128 0x10
 2647 09bf 01       		.uleb128 0x1
 2648 09c0 50       		.byte	0x50
 2649 09c1 02       		.uleb128 0x2
 2650 09c2 78       		.byte	0x78
 2651 09c3 00       		.sleb128 0
 2652 09c4 00       		.byte	0
 2653 09c5 14       		.uleb128 0x14
 2654 09c6 80000000 		.4byte	.LVL92
 2655 09ca 4F0D0000 		.4byte	0xd4f
 2656 09ce D8090000 		.4byte	0x9d8
 2657 09d2 10       		.uleb128 0x10
 2658 09d3 01       		.uleb128 0x1
 2659 09d4 50       		.byte	0x50
 2660 09d5 01       		.uleb128 0x1
 2661 09d6 30       		.byte	0x30
 2662 09d7 00       		.byte	0
 2663 09d8 14       		.uleb128 0x14
 2664 09d9 86000000 		.4byte	.LVL93
 2665 09dd F30C0000 		.4byte	0xcf3
 2666 09e1 EC090000 		.4byte	0x9ec
 2667 09e5 10       		.uleb128 0x10
 2668 09e6 01       		.uleb128 0x1
 2669 09e7 50       		.byte	0x50
 2670 09e8 02       		.uleb128 0x2
 2671 09e9 08       		.byte	0x8
 2672 09ea C8       		.byte	0xc8
 2673 09eb 00       		.byte	0
ARM GAS  C:\Users\mame\AppData\Local\Temp\ccpggl3x.s 			page 59


 2674 09ec 14       		.uleb128 0x14
 2675 09ed 8C000000 		.4byte	.LVL94
 2676 09f1 6C070000 		.4byte	0x76c
 2677 09f5 000A0000 		.4byte	0xa00
 2678 09f9 10       		.uleb128 0x10
 2679 09fa 01       		.uleb128 0x1
 2680 09fb 50       		.byte	0x50
 2681 09fc 02       		.uleb128 0x2
 2682 09fd 78       		.byte	0x78
 2683 09fe 00       		.sleb128 0
 2684 09ff 00       		.byte	0
 2685 0a00 14       		.uleb128 0x14
 2686 0a01 92000000 		.4byte	.LVL95
 2687 0a05 F30C0000 		.4byte	0xcf3
 2688 0a09 140A0000 		.4byte	0xa14
 2689 0a0d 10       		.uleb128 0x10
 2690 0a0e 01       		.uleb128 0x1
 2691 0a0f 50       		.byte	0x50
 2692 0a10 02       		.uleb128 0x2
 2693 0a11 08       		.byte	0x8
 2694 0a12 C8       		.byte	0xc8
 2695 0a13 00       		.byte	0
 2696 0a14 14       		.uleb128 0x14
 2697 0a15 98000000 		.4byte	.LVL96
 2698 0a19 EE040000 		.4byte	0x4ee
 2699 0a1d 280A0000 		.4byte	0xa28
 2700 0a21 10       		.uleb128 0x10
 2701 0a22 01       		.uleb128 0x1
 2702 0a23 50       		.byte	0x50
 2703 0a24 02       		.uleb128 0x2
 2704 0a25 78       		.byte	0x78
 2705 0a26 00       		.sleb128 0
 2706 0a27 00       		.byte	0
 2707 0a28 14       		.uleb128 0x14
 2708 0a29 A0000000 		.4byte	.LVL98
 2709 0a2d 5A0D0000 		.4byte	0xd5a
 2710 0a31 3B0A0000 		.4byte	0xa3b
 2711 0a35 10       		.uleb128 0x10
 2712 0a36 01       		.uleb128 0x1
 2713 0a37 50       		.byte	0x50
 2714 0a38 01       		.uleb128 0x1
 2715 0a39 31       		.byte	0x31
 2716 0a3a 00       		.byte	0
 2717 0a3b 14       		.uleb128 0x14
 2718 0a3c CE000000 		.4byte	.LVL104
 2719 0a40 5A0D0000 		.4byte	0xd5a
 2720 0a44 4E0A0000 		.4byte	0xa4e
 2721 0a48 10       		.uleb128 0x10
 2722 0a49 01       		.uleb128 0x1
 2723 0a4a 50       		.byte	0x50
 2724 0a4b 01       		.uleb128 0x1
 2725 0a4c 34       		.byte	0x34
 2726 0a4d 00       		.byte	0
 2727 0a4e 14       		.uleb128 0x14
 2728 0a4f FC000000 		.4byte	.LVL111
 2729 0a53 4F0D0000 		.4byte	0xd4f
 2730 0a57 610A0000 		.4byte	0xa61
ARM GAS  C:\Users\mame\AppData\Local\Temp\ccpggl3x.s 			page 60


 2731 0a5b 10       		.uleb128 0x10
 2732 0a5c 01       		.uleb128 0x1
 2733 0a5d 50       		.byte	0x50
 2734 0a5e 01       		.uleb128 0x1
 2735 0a5f 31       		.byte	0x31
 2736 0a60 00       		.byte	0
 2737 0a61 14       		.uleb128 0x14
 2738 0a62 0E010000 		.4byte	.LVL116
 2739 0a66 4F0D0000 		.4byte	0xd4f
 2740 0a6a 740A0000 		.4byte	0xa74
 2741 0a6e 10       		.uleb128 0x10
 2742 0a6f 01       		.uleb128 0x1
 2743 0a70 50       		.byte	0x50
 2744 0a71 01       		.uleb128 0x1
 2745 0a72 30       		.byte	0x30
 2746 0a73 00       		.byte	0
 2747 0a74 14       		.uleb128 0x14
 2748 0a75 14010000 		.4byte	.LVL117
 2749 0a79 DD0C0000 		.4byte	0xcdd
 2750 0a7d 890A0000 		.4byte	0xa89
 2751 0a81 10       		.uleb128 0x10
 2752 0a82 01       		.uleb128 0x1
 2753 0a83 50       		.byte	0x50
 2754 0a84 03       		.uleb128 0x3
 2755 0a85 91       		.byte	0x91
 2756 0a86 FC7E     		.sleb128 -132
 2757 0a88 00       		.byte	0
 2758 0a89 14       		.uleb128 0x14
 2759 0a8a 40010000 		.4byte	.LVL121
 2760 0a8e E80C0000 		.4byte	0xce8
 2761 0a92 B40A0000 		.4byte	0xab4
 2762 0a96 10       		.uleb128 0x10
 2763 0a97 01       		.uleb128 0x1
 2764 0a98 50       		.byte	0x50
 2765 0a99 03       		.uleb128 0x3
 2766 0a9a 91       		.byte	0x91
 2767 0a9b FC7E     		.sleb128 -132
 2768 0a9d 10       		.uleb128 0x10
 2769 0a9e 01       		.uleb128 0x1
 2770 0a9f 51       		.byte	0x51
 2771 0aa0 05       		.uleb128 0x5
 2772 0aa1 03       		.byte	0x3
 2773 0aa2 38000000 		.4byte	.LC10
 2774 0aa6 10       		.uleb128 0x10
 2775 0aa7 01       		.uleb128 0x1
 2776 0aa8 52       		.byte	0x52
 2777 0aa9 03       		.uleb128 0x3
 2778 0aaa 91       		.byte	0x91
 2779 0aab FC7E     		.sleb128 -132
 2780 0aad 10       		.uleb128 0x10
 2781 0aae 01       		.uleb128 0x1
 2782 0aaf 53       		.byte	0x53
 2783 0ab0 02       		.uleb128 0x2
 2784 0ab1 77       		.byte	0x77
 2785 0ab2 00       		.sleb128 0
 2786 0ab3 00       		.byte	0
 2787 0ab4 14       		.uleb128 0x14
ARM GAS  C:\Users\mame\AppData\Local\Temp\ccpggl3x.s 			page 61


 2788 0ab5 62010000 		.4byte	.LVL127
 2789 0ab9 440D0000 		.4byte	0xd44
 2790 0abd C70A0000 		.4byte	0xac7
 2791 0ac1 10       		.uleb128 0x10
 2792 0ac2 01       		.uleb128 0x1
 2793 0ac3 50       		.byte	0x50
 2794 0ac4 01       		.uleb128 0x1
 2795 0ac5 30       		.byte	0x30
 2796 0ac6 00       		.byte	0
 2797 0ac7 0D       		.uleb128 0xd
 2798 0ac8 66010000 		.4byte	.LVL128
 2799 0acc 16020000 		.4byte	0x216
 2800 0ad0 00       		.byte	0
 2801 0ad1 09       		.uleb128 0x9
 2802 0ad2 BD000000 		.4byte	0xbd
 2803 0ad6 E10A0000 		.4byte	0xae1
 2804 0ada 0A       		.uleb128 0xa
 2805 0adb CB000000 		.4byte	0xcb
 2806 0adf 63       		.byte	0x63
 2807 0ae0 00       		.byte	0
 2808 0ae1 09       		.uleb128 0x9
 2809 0ae2 BD000000 		.4byte	0xbd
 2810 0ae6 F20A0000 		.4byte	0xaf2
 2811 0aea 1C       		.uleb128 0x1c
 2812 0aeb CB000000 		.4byte	0xcb
 2813 0aef 0001     		.2byte	0x100
 2814 0af1 00       		.byte	0
 2815 0af2 1D       		.uleb128 0x1d
 2816 0af3 2C000000 		.4byte	.LASF48
 2817 0af7 01       		.byte	0x1
 2818 0af8 2A       		.byte	0x2a
 2819 0af9 E10A0000 		.4byte	0xae1
 2820 0afd 05       		.uleb128 0x5
 2821 0afe 03       		.byte	0x3
 2822 0aff 04000000 		.4byte	SDI12_uart_buf
 2823 0b03 1D       		.uleb128 0x1d
 2824 0b04 E0010000 		.4byte	.LASF49
 2825 0b08 01       		.byte	0x1
 2826 0b09 2B       		.byte	0x2b
 2827 0b0a 81000000 		.4byte	0x81
 2828 0b0e 05       		.uleb128 0x5
 2829 0b0f 03       		.byte	0x3
 2830 0b10 00000000 		.4byte	SDI12_buf_idx
 2831 0b14 1E       		.uleb128 0x1e
 2832 0b15 CE030000 		.4byte	.LASF50
 2833 0b19 06       		.byte	0x6
 2834 0b1a 1207     		.2byte	0x712
 2835 0b1c 200B0000 		.4byte	0xb20
 2836 0b20 1F       		.uleb128 0x1f
 2837 0b21 8C000000 		.4byte	0x8c
 2838 0b25 09       		.uleb128 0x9
 2839 0b26 A9010000 		.4byte	0x1a9
 2840 0b2a 350B0000 		.4byte	0xb35
 2841 0b2e 0A       		.uleb128 0xa
 2842 0b2f CB000000 		.4byte	0xcb
 2843 0b33 01       		.byte	0x1
 2844 0b34 00       		.byte	0
ARM GAS  C:\Users\mame\AppData\Local\Temp\ccpggl3x.s 			page 62


 2845 0b35 20       		.uleb128 0x20
 2846 0b36 91000000 		.4byte	.LASF51
 2847 0b3a 01       		.byte	0x1
 2848 0b3b 0F       		.byte	0xf
 2849 0b3c 250B0000 		.4byte	0xb25
 2850 0b40 05       		.uleb128 0x5
 2851 0b41 03       		.byte	0x3
 2852 0b42 00000000 		.4byte	sensors
 2853 0b46 09       		.uleb128 0x9
 2854 0b47 D2000000 		.4byte	0xd2
 2855 0b4b 560B0000 		.4byte	0xb56
 2856 0b4f 0A       		.uleb128 0xa
 2857 0b50 CB000000 		.4byte	0xcb
 2858 0b54 01       		.byte	0x1
 2859 0b55 00       		.byte	0
 2860 0b56 20       		.uleb128 0x20
 2861 0b57 8B010000 		.4byte	.LASF21
 2862 0b5b 01       		.byte	0x1
 2863 0b5c 12       		.byte	0x12
 2864 0b5d 460B0000 		.4byte	0xb46
 2865 0b61 05       		.uleb128 0x5
 2866 0b62 03       		.byte	0x3
 2867 0b63 00000000 		.4byte	labels
 2868 0b67 09       		.uleb128 0x9
 2869 0b68 AF000000 		.4byte	0xaf
 2870 0b6c 770B0000 		.4byte	0xb77
 2871 0b70 0A       		.uleb128 0xa
 2872 0b71 CB000000 		.4byte	0xcb
 2873 0b75 01       		.byte	0x1
 2874 0b76 00       		.byte	0
 2875 0b77 20       		.uleb128 0x20
 2876 0b78 92010000 		.4byte	.LASF22
 2877 0b7c 01       		.byte	0x1
 2878 0b7d 13       		.byte	0x13
 2879 0b7e 670B0000 		.4byte	0xb67
 2880 0b82 05       		.uleb128 0x5
 2881 0b83 03       		.byte	0x3
 2882 0b84 00000000 		.4byte	values
 2883 0b88 20       		.uleb128 0x20
 2884 0b89 92020000 		.4byte	.LASF52
 2885 0b8d 01       		.byte	0x1
 2886 0b8e 14       		.byte	0x14
 2887 0b8f A9010000 		.4byte	0x1a9
 2888 0b93 05       		.uleb128 0x5
 2889 0b94 03       		.byte	0x3
 2890 0b95 00000000 		.4byte	solinst
 2891 0b99 09       		.uleb128 0x9
 2892 0b9a D2000000 		.4byte	0xd2
 2893 0b9e A90B0000 		.4byte	0xba9
 2894 0ba2 0A       		.uleb128 0xa
 2895 0ba3 CB000000 		.4byte	0xcb
 2896 0ba7 02       		.byte	0x2
 2897 0ba8 00       		.byte	0
 2898 0ba9 20       		.uleb128 0x20
 2899 0baa 69020000 		.4byte	.LASF53
 2900 0bae 01       		.byte	0x1
 2901 0baf 1D       		.byte	0x1d
ARM GAS  C:\Users\mame\AppData\Local\Temp\ccpggl3x.s 			page 63


 2902 0bb0 990B0000 		.4byte	0xb99
 2903 0bb4 05       		.uleb128 0x5
 2904 0bb5 03       		.byte	0x3
 2905 0bb6 00000000 		.4byte	GS3_labels
 2906 0bba 09       		.uleb128 0x9
 2907 0bbb AF000000 		.4byte	0xaf
 2908 0bbf CA0B0000 		.4byte	0xbca
 2909 0bc3 0A       		.uleb128 0xa
 2910 0bc4 CB000000 		.4byte	0xcb
 2911 0bc8 02       		.byte	0x2
 2912 0bc9 00       		.byte	0
 2913 0bca 20       		.uleb128 0x20
 2914 0bcb 95030000 		.4byte	.LASF54
 2915 0bcf 01       		.byte	0x1
 2916 0bd0 1E       		.byte	0x1e
 2917 0bd1 BA0B0000 		.4byte	0xbba
 2918 0bd5 05       		.uleb128 0x5
 2919 0bd6 03       		.byte	0x3
 2920 0bd7 00000000 		.4byte	GS3_values
 2921 0bdb 21       		.uleb128 0x21
 2922 0bdc 47533300 		.ascii	"GS3\000"
 2923 0be0 01       		.byte	0x1
 2924 0be1 1F       		.byte	0x1f
 2925 0be2 A9010000 		.4byte	0x1a9
 2926 0be6 05       		.uleb128 0x5
 2927 0be7 03       		.byte	0x3
 2928 0be8 00000000 		.4byte	GS3
 2929 0bec 21       		.uleb128 0x21
 2930 0bed 6900     		.ascii	"i\000"
 2931 0bef 01       		.byte	0x1
 2932 0bf0 2E       		.byte	0x2e
 2933 0bf1 97000000 		.4byte	0x97
 2934 0bf5 05       		.uleb128 0x5
 2935 0bf6 03       		.byte	0x3
 2936 0bf7 00000000 		.4byte	i
 2937 0bfb 20       		.uleb128 0x20
 2938 0bfc 9D040000 		.4byte	.LASF55
 2939 0c00 01       		.byte	0x1
 2940 0c01 2F       		.byte	0x2f
 2941 0c02 A3000000 		.4byte	0xa3
 2942 0c06 05       		.uleb128 0x5
 2943 0c07 03       		.byte	0x3
 2944 0c08 00000000 		.4byte	ms_delay
 2945 0c0c 20       		.uleb128 0x20
 2946 0c0d 80040000 		.4byte	.LASF35
 2947 0c11 01       		.byte	0x1
 2948 0c12 32       		.byte	0x32
 2949 0c13 D10A0000 		.4byte	0xad1
 2950 0c17 05       		.uleb128 0x5
 2951 0c18 03       		.byte	0x3
 2952 0c19 00000000 		.4byte	command
 2953 0c1d 20       		.uleb128 0x20
 2954 0c1e 74020000 		.4byte	.LASF56
 2955 0c22 01       		.byte	0x1
 2956 0c23 35       		.byte	0x35
 2957 0c24 D10A0000 		.4byte	0xad1
 2958 0c28 05       		.uleb128 0x5
ARM GAS  C:\Users\mame\AppData\Local\Temp\ccpggl3x.s 			page 64


 2959 0c29 03       		.byte	0x3
 2960 0c2a 00000000 		.4byte	value_str
 2961 0c2e 09       		.uleb128 0x9
 2962 0c2f BD000000 		.4byte	0xbd
 2963 0c33 3E0C0000 		.4byte	0xc3e
 2964 0c37 0A       		.uleb128 0xa
 2965 0c38 CB000000 		.4byte	0xcb
 2966 0c3c 09       		.byte	0x9
 2967 0c3d 00       		.byte	0
 2968 0c3e 20       		.uleb128 0x20
 2969 0c3f 2D010000 		.4byte	.LASF57
 2970 0c43 01       		.byte	0x1
 2971 0c44 35       		.byte	0x35
 2972 0c45 2E0C0000 		.4byte	0xc2e
 2973 0c49 05       		.uleb128 0x5
 2974 0c4a 03       		.byte	0x3
 2975 0c4b 00000000 		.4byte	delay_str
 2976 0c4f 20       		.uleb128 0x20
 2977 0c50 6E000000 		.4byte	.LASF58
 2978 0c54 01       		.byte	0x1
 2979 0c55 35       		.byte	0x35
 2980 0c56 D2000000 		.4byte	0xd2
 2981 0c5a 05       		.uleb128 0x5
 2982 0c5b 03       		.byte	0x3
 2983 0c5c 00000000 		.4byte	ptr_end
 2984 0c60 20       		.uleb128 0x20
 2985 0c61 51020000 		.4byte	.LASF59
 2986 0c65 01       		.byte	0x1
 2987 0c66 35       		.byte	0x35
 2988 0c67 D2000000 		.4byte	0xd2
 2989 0c6b 05       		.uleb128 0x5
 2990 0c6c 03       		.byte	0x3
 2991 0c6d 00000000 		.4byte	sign
 2992 0c71 22       		.uleb128 0x22
 2993 0c72 99000000 		.4byte	.LASF60
 2994 0c76 99000000 		.4byte	.LASF60
 2995 0c7a 07       		.byte	0x7
 2996 0c7b 71       		.byte	0x71
 2997 0c7c 22       		.uleb128 0x22
 2998 0c7d 36030000 		.4byte	.LASF61
 2999 0c81 36030000 		.4byte	.LASF61
 3000 0c85 07       		.byte	0x7
 3001 0c86 54       		.byte	0x54
 3002 0c87 22       		.uleb128 0x22
 3003 0c88 A1020000 		.4byte	.LASF62
 3004 0c8c A1020000 		.4byte	.LASF62
 3005 0c90 08       		.byte	0x8
 3006 0c91 18       		.byte	0x18
 3007 0c92 22       		.uleb128 0x22
 3008 0c93 1E010000 		.4byte	.LASF63
 3009 0c97 1E010000 		.4byte	.LASF63
 3010 0c9b 08       		.byte	0x8
 3011 0c9c 19       		.byte	0x19
 3012 0c9d 22       		.uleb128 0x22
 3013 0c9e 3D010000 		.4byte	.LASF64
 3014 0ca2 3D010000 		.4byte	.LASF64
 3015 0ca6 07       		.byte	0x7
ARM GAS  C:\Users\mame\AppData\Local\Temp\ccpggl3x.s 			page 65


 3016 0ca7 55       		.byte	0x55
 3017 0ca8 22       		.uleb128 0x22
 3018 0ca9 A3010000 		.4byte	.LASF65
 3019 0cad A3010000 		.4byte	.LASF65
 3020 0cb1 07       		.byte	0x7
 3021 0cb2 75       		.byte	0x75
 3022 0cb3 23       		.uleb128 0x23
 3023 0cb4 5B010000 		.4byte	.LASF84
 3024 0cb8 5B010000 		.4byte	.LASF84
 3025 0cbc 22       		.uleb128 0x22
 3026 0cbd 7D030000 		.4byte	.LASF66
 3027 0cc1 7D030000 		.4byte	.LASF66
 3028 0cc5 09       		.byte	0x9
 3029 0cc6 2F       		.byte	0x2f
 3030 0cc7 22       		.uleb128 0x22
 3031 0cc8 C8010000 		.4byte	.LASF67
 3032 0ccc C8010000 		.4byte	.LASF67
 3033 0cd0 0A       		.byte	0xa
 3034 0cd1 77       		.byte	0x77
 3035 0cd2 22       		.uleb128 0x22
 3036 0cd3 B9030000 		.4byte	.LASF68
 3037 0cd7 B9030000 		.4byte	.LASF68
 3038 0cdb 07       		.byte	0x7
 3039 0cdc 8B       		.byte	0x8b
 3040 0cdd 22       		.uleb128 0x22
 3041 0cde 64000000 		.4byte	.LASF69
 3042 0ce2 64000000 		.4byte	.LASF69
 3043 0ce6 0B       		.byte	0xb
 3044 0ce7 3C       		.byte	0x3c
 3045 0ce8 22       		.uleb128 0x22
 3046 0ce9 F8010000 		.4byte	.LASF70
 3047 0ced F8010000 		.4byte	.LASF70
 3048 0cf1 0C       		.byte	0xc
 3049 0cf2 E7       		.byte	0xe7
 3050 0cf3 22       		.uleb128 0x22
 3051 0cf4 69040000 		.4byte	.LASF71
 3052 0cf8 69040000 		.4byte	.LASF71
 3053 0cfc 0A       		.byte	0xa
 3054 0cfd 76       		.byte	0x76
 3055 0cfe 22       		.uleb128 0x22
 3056 0cff 59000000 		.4byte	.LASF72
 3057 0d03 59000000 		.4byte	.LASF72
 3058 0d07 0B       		.byte	0xb
 3059 0d08 5C       		.byte	0x5c
 3060 0d09 22       		.uleb128 0x22
 3061 0d0a 42020000 		.4byte	.LASF73
 3062 0d0e 42020000 		.4byte	.LASF73
 3063 0d12 0D       		.byte	0xd
 3064 0d13 28       		.byte	0x28
 3065 0d14 22       		.uleb128 0x22
 3066 0d15 83020000 		.4byte	.LASF74
 3067 0d19 83020000 		.4byte	.LASF74
 3068 0d1d 0D       		.byte	0xd
 3069 0d1e 21       		.byte	0x21
 3070 0d1f 22       		.uleb128 0x22
 3071 0d20 06000000 		.4byte	.LASF75
 3072 0d24 06000000 		.4byte	.LASF75
ARM GAS  C:\Users\mame\AppData\Local\Temp\ccpggl3x.s 			page 66


 3073 0d28 0D       		.byte	0xd
 3074 0d29 24       		.byte	0x24
 3075 0d2a 22       		.uleb128 0x22
 3076 0d2b 62010000 		.4byte	.LASF76
 3077 0d2f 62010000 		.4byte	.LASF76
 3078 0d33 0E       		.byte	0xe
 3079 0d34 97       		.byte	0x97
 3080 0d35 24       		.uleb128 0x24
 3081 0d36 00020000 		.4byte	.LASF85
 3082 0d3a 72010000 		.4byte	.LASF86
 3083 0d3e 12       		.byte	0x12
 3084 0d3f 00       		.byte	0
 3085 0d40 00020000 		.4byte	.LASF85
 3086 0d44 22       		.uleb128 0x22
 3087 0d45 F3000000 		.4byte	.LASF77
 3088 0d49 F3000000 		.4byte	.LASF77
 3089 0d4d 0F       		.byte	0xf
 3090 0d4e 26       		.byte	0x26
 3091 0d4f 22       		.uleb128 0x22
 3092 0d50 22000000 		.4byte	.LASF78
 3093 0d54 22000000 		.4byte	.LASF78
 3094 0d58 10       		.byte	0x10
 3095 0d59 26       		.byte	0x26
 3096 0d5a 22       		.uleb128 0x22
 3097 0d5b EE010000 		.4byte	.LASF79
 3098 0d5f EE010000 		.4byte	.LASF79
 3099 0d63 11       		.byte	0x11
 3100 0d64 24       		.byte	0x24
 3101 0d65 00       		.byte	0
 3102              		.section	.debug_abbrev,"",%progbits
 3103              	.Ldebug_abbrev0:
 3104 0000 01       		.uleb128 0x1
 3105 0001 11       		.uleb128 0x11
 3106 0002 01       		.byte	0x1
 3107 0003 25       		.uleb128 0x25
 3108 0004 0E       		.uleb128 0xe
 3109 0005 13       		.uleb128 0x13
 3110 0006 0B       		.uleb128 0xb
 3111 0007 03       		.uleb128 0x3
 3112 0008 0E       		.uleb128 0xe
 3113 0009 1B       		.uleb128 0x1b
 3114 000a 0E       		.uleb128 0xe
 3115 000b 55       		.uleb128 0x55
 3116 000c 17       		.uleb128 0x17
 3117 000d 11       		.uleb128 0x11
 3118 000e 01       		.uleb128 0x1
 3119 000f 10       		.uleb128 0x10
 3120 0010 17       		.uleb128 0x17
 3121 0011 00       		.byte	0
 3122 0012 00       		.byte	0
 3123 0013 02       		.uleb128 0x2
 3124 0014 24       		.uleb128 0x24
 3125 0015 00       		.byte	0
 3126 0016 0B       		.uleb128 0xb
 3127 0017 0B       		.uleb128 0xb
 3128 0018 3E       		.uleb128 0x3e
 3129 0019 0B       		.uleb128 0xb
ARM GAS  C:\Users\mame\AppData\Local\Temp\ccpggl3x.s 			page 67


 3130 001a 03       		.uleb128 0x3
 3131 001b 0E       		.uleb128 0xe
 3132 001c 00       		.byte	0
 3133 001d 00       		.byte	0
 3134 001e 03       		.uleb128 0x3
 3135 001f 16       		.uleb128 0x16
 3136 0020 00       		.byte	0
 3137 0021 03       		.uleb128 0x3
 3138 0022 0E       		.uleb128 0xe
 3139 0023 3A       		.uleb128 0x3a
 3140 0024 0B       		.uleb128 0xb
 3141 0025 3B       		.uleb128 0x3b
 3142 0026 0B       		.uleb128 0xb
 3143 0027 49       		.uleb128 0x49
 3144 0028 13       		.uleb128 0x13
 3145 0029 00       		.byte	0
 3146 002a 00       		.byte	0
 3147 002b 04       		.uleb128 0x4
 3148 002c 24       		.uleb128 0x24
 3149 002d 00       		.byte	0
 3150 002e 0B       		.uleb128 0xb
 3151 002f 0B       		.uleb128 0xb
 3152 0030 3E       		.uleb128 0x3e
 3153 0031 0B       		.uleb128 0xb
 3154 0032 03       		.uleb128 0x3
 3155 0033 08       		.uleb128 0x8
 3156 0034 00       		.byte	0
 3157 0035 00       		.byte	0
 3158 0036 05       		.uleb128 0x5
 3159 0037 16       		.uleb128 0x16
 3160 0038 00       		.byte	0
 3161 0039 03       		.uleb128 0x3
 3162 003a 0E       		.uleb128 0xe
 3163 003b 3A       		.uleb128 0x3a
 3164 003c 0B       		.uleb128 0xb
 3165 003d 3B       		.uleb128 0x3b
 3166 003e 05       		.uleb128 0x5
 3167 003f 49       		.uleb128 0x49
 3168 0040 13       		.uleb128 0x13
 3169 0041 00       		.byte	0
 3170 0042 00       		.byte	0
 3171 0043 06       		.uleb128 0x6
 3172 0044 0F       		.uleb128 0xf
 3173 0045 00       		.byte	0
 3174 0046 0B       		.uleb128 0xb
 3175 0047 0B       		.uleb128 0xb
 3176 0048 49       		.uleb128 0x49
 3177 0049 13       		.uleb128 0x13
 3178 004a 00       		.byte	0
 3179 004b 00       		.byte	0
 3180 004c 07       		.uleb128 0x7
 3181 004d 13       		.uleb128 0x13
 3182 004e 01       		.byte	0x1
 3183 004f 0B       		.uleb128 0xb
 3184 0050 0B       		.uleb128 0xb
 3185 0051 3A       		.uleb128 0x3a
 3186 0052 0B       		.uleb128 0xb
ARM GAS  C:\Users\mame\AppData\Local\Temp\ccpggl3x.s 			page 68


 3187 0053 3B       		.uleb128 0x3b
 3188 0054 0B       		.uleb128 0xb
 3189 0055 01       		.uleb128 0x1
 3190 0056 13       		.uleb128 0x13
 3191 0057 00       		.byte	0
 3192 0058 00       		.byte	0
 3193 0059 08       		.uleb128 0x8
 3194 005a 0D       		.uleb128 0xd
 3195 005b 00       		.byte	0
 3196 005c 03       		.uleb128 0x3
 3197 005d 0E       		.uleb128 0xe
 3198 005e 3A       		.uleb128 0x3a
 3199 005f 0B       		.uleb128 0xb
 3200 0060 3B       		.uleb128 0x3b
 3201 0061 0B       		.uleb128 0xb
 3202 0062 49       		.uleb128 0x49
 3203 0063 13       		.uleb128 0x13
 3204 0064 38       		.uleb128 0x38
 3205 0065 0B       		.uleb128 0xb
 3206 0066 00       		.byte	0
 3207 0067 00       		.byte	0
 3208 0068 09       		.uleb128 0x9
 3209 0069 01       		.uleb128 0x1
 3210 006a 01       		.byte	0x1
 3211 006b 49       		.uleb128 0x49
 3212 006c 13       		.uleb128 0x13
 3213 006d 01       		.uleb128 0x1
 3214 006e 13       		.uleb128 0x13
 3215 006f 00       		.byte	0
 3216 0070 00       		.byte	0
 3217 0071 0A       		.uleb128 0xa
 3218 0072 21       		.uleb128 0x21
 3219 0073 00       		.byte	0
 3220 0074 49       		.uleb128 0x49
 3221 0075 13       		.uleb128 0x13
 3222 0076 2F       		.uleb128 0x2f
 3223 0077 0B       		.uleb128 0xb
 3224 0078 00       		.byte	0
 3225 0079 00       		.byte	0
 3226 007a 0B       		.uleb128 0xb
 3227 007b 2E       		.uleb128 0x2e
 3228 007c 01       		.byte	0x1
 3229 007d 3F       		.uleb128 0x3f
 3230 007e 19       		.uleb128 0x19
 3231 007f 03       		.uleb128 0x3
 3232 0080 0E       		.uleb128 0xe
 3233 0081 3A       		.uleb128 0x3a
 3234 0082 0B       		.uleb128 0xb
 3235 0083 3B       		.uleb128 0x3b
 3236 0084 05       		.uleb128 0x5
 3237 0085 27       		.uleb128 0x27
 3238 0086 19       		.uleb128 0x19
 3239 0087 11       		.uleb128 0x11
 3240 0088 01       		.uleb128 0x1
 3241 0089 12       		.uleb128 0x12
 3242 008a 06       		.uleb128 0x6
 3243 008b 40       		.uleb128 0x40
ARM GAS  C:\Users\mame\AppData\Local\Temp\ccpggl3x.s 			page 69


 3244 008c 18       		.uleb128 0x18
 3245 008d 9742     		.uleb128 0x2117
 3246 008f 19       		.uleb128 0x19
 3247 0090 01       		.uleb128 0x1
 3248 0091 13       		.uleb128 0x13
 3249 0092 00       		.byte	0
 3250 0093 00       		.byte	0
 3251 0094 0C       		.uleb128 0xc
 3252 0095 34       		.uleb128 0x34
 3253 0096 00       		.byte	0
 3254 0097 03       		.uleb128 0x3
 3255 0098 0E       		.uleb128 0xe
 3256 0099 3A       		.uleb128 0x3a
 3257 009a 0B       		.uleb128 0xb
 3258 009b 3B       		.uleb128 0x3b
 3259 009c 05       		.uleb128 0x5
 3260 009d 49       		.uleb128 0x49
 3261 009e 13       		.uleb128 0x13
 3262 009f 02       		.uleb128 0x2
 3263 00a0 17       		.uleb128 0x17
 3264 00a1 00       		.byte	0
 3265 00a2 00       		.byte	0
 3266 00a3 0D       		.uleb128 0xd
 3267 00a4 898201   		.uleb128 0x4109
 3268 00a7 00       		.byte	0
 3269 00a8 11       		.uleb128 0x11
 3270 00a9 01       		.uleb128 0x1
 3271 00aa 31       		.uleb128 0x31
 3272 00ab 13       		.uleb128 0x13
 3273 00ac 00       		.byte	0
 3274 00ad 00       		.byte	0
 3275 00ae 0E       		.uleb128 0xe
 3276 00af 2E       		.uleb128 0x2e
 3277 00b0 01       		.byte	0x1
 3278 00b1 3F       		.uleb128 0x3f
 3279 00b2 19       		.uleb128 0x19
 3280 00b3 03       		.uleb128 0x3
 3281 00b4 0E       		.uleb128 0xe
 3282 00b5 3A       		.uleb128 0x3a
 3283 00b6 0B       		.uleb128 0xb
 3284 00b7 3B       		.uleb128 0x3b
 3285 00b8 0B       		.uleb128 0xb
 3286 00b9 11       		.uleb128 0x11
 3287 00ba 01       		.uleb128 0x1
 3288 00bb 12       		.uleb128 0x12
 3289 00bc 06       		.uleb128 0x6
 3290 00bd 40       		.uleb128 0x40
 3291 00be 18       		.uleb128 0x18
 3292 00bf 9742     		.uleb128 0x2117
 3293 00c1 19       		.uleb128 0x19
 3294 00c2 01       		.uleb128 0x1
 3295 00c3 13       		.uleb128 0x13
 3296 00c4 00       		.byte	0
 3297 00c5 00       		.byte	0
 3298 00c6 0F       		.uleb128 0xf
 3299 00c7 898201   		.uleb128 0x4109
 3300 00ca 01       		.byte	0x1
ARM GAS  C:\Users\mame\AppData\Local\Temp\ccpggl3x.s 			page 70


 3301 00cb 11       		.uleb128 0x11
 3302 00cc 01       		.uleb128 0x1
 3303 00cd 31       		.uleb128 0x31
 3304 00ce 13       		.uleb128 0x13
 3305 00cf 00       		.byte	0
 3306 00d0 00       		.byte	0
 3307 00d1 10       		.uleb128 0x10
 3308 00d2 8A8201   		.uleb128 0x410a
 3309 00d5 00       		.byte	0
 3310 00d6 02       		.uleb128 0x2
 3311 00d7 18       		.uleb128 0x18
 3312 00d8 9142     		.uleb128 0x2111
 3313 00da 18       		.uleb128 0x18
 3314 00db 00       		.byte	0
 3315 00dc 00       		.byte	0
 3316 00dd 11       		.uleb128 0x11
 3317 00de 2E       		.uleb128 0x2e
 3318 00df 00       		.byte	0
 3319 00e0 3F       		.uleb128 0x3f
 3320 00e1 19       		.uleb128 0x19
 3321 00e2 03       		.uleb128 0x3
 3322 00e3 0E       		.uleb128 0xe
 3323 00e4 3A       		.uleb128 0x3a
 3324 00e5 0B       		.uleb128 0xb
 3325 00e6 3B       		.uleb128 0x3b
 3326 00e7 0B       		.uleb128 0xb
 3327 00e8 49       		.uleb128 0x49
 3328 00e9 13       		.uleb128 0x13
 3329 00ea 11       		.uleb128 0x11
 3330 00eb 01       		.uleb128 0x1
 3331 00ec 12       		.uleb128 0x12
 3332 00ed 06       		.uleb128 0x6
 3333 00ee 40       		.uleb128 0x40
 3334 00ef 18       		.uleb128 0x18
 3335 00f0 9742     		.uleb128 0x2117
 3336 00f2 19       		.uleb128 0x19
 3337 00f3 00       		.byte	0
 3338 00f4 00       		.byte	0
 3339 00f5 12       		.uleb128 0x12
 3340 00f6 2E       		.uleb128 0x2e
 3341 00f7 01       		.byte	0x1
 3342 00f8 3F       		.uleb128 0x3f
 3343 00f9 19       		.uleb128 0x19
 3344 00fa 03       		.uleb128 0x3
 3345 00fb 0E       		.uleb128 0xe
 3346 00fc 3A       		.uleb128 0x3a
 3347 00fd 0B       		.uleb128 0xb
 3348 00fe 3B       		.uleb128 0x3b
 3349 00ff 0B       		.uleb128 0xb
 3350 0100 27       		.uleb128 0x27
 3351 0101 19       		.uleb128 0x19
 3352 0102 11       		.uleb128 0x11
 3353 0103 01       		.uleb128 0x1
 3354 0104 12       		.uleb128 0x12
 3355 0105 06       		.uleb128 0x6
 3356 0106 40       		.uleb128 0x40
 3357 0107 18       		.uleb128 0x18
ARM GAS  C:\Users\mame\AppData\Local\Temp\ccpggl3x.s 			page 71


 3358 0108 9742     		.uleb128 0x2117
 3359 010a 19       		.uleb128 0x19
 3360 010b 01       		.uleb128 0x1
 3361 010c 13       		.uleb128 0x13
 3362 010d 00       		.byte	0
 3363 010e 00       		.byte	0
 3364 010f 13       		.uleb128 0x13
 3365 0110 05       		.uleb128 0x5
 3366 0111 00       		.byte	0
 3367 0112 03       		.uleb128 0x3
 3368 0113 0E       		.uleb128 0xe
 3369 0114 3A       		.uleb128 0x3a
 3370 0115 0B       		.uleb128 0xb
 3371 0116 3B       		.uleb128 0x3b
 3372 0117 0B       		.uleb128 0xb
 3373 0118 49       		.uleb128 0x49
 3374 0119 13       		.uleb128 0x13
 3375 011a 02       		.uleb128 0x2
 3376 011b 17       		.uleb128 0x17
 3377 011c 00       		.byte	0
 3378 011d 00       		.byte	0
 3379 011e 14       		.uleb128 0x14
 3380 011f 898201   		.uleb128 0x4109
 3381 0122 01       		.byte	0x1
 3382 0123 11       		.uleb128 0x11
 3383 0124 01       		.uleb128 0x1
 3384 0125 31       		.uleb128 0x31
 3385 0126 13       		.uleb128 0x13
 3386 0127 01       		.uleb128 0x1
 3387 0128 13       		.uleb128 0x13
 3388 0129 00       		.byte	0
 3389 012a 00       		.byte	0
 3390 012b 15       		.uleb128 0x15
 3391 012c 2E       		.uleb128 0x2e
 3392 012d 01       		.byte	0x1
 3393 012e 3F       		.uleb128 0x3f
 3394 012f 19       		.uleb128 0x19
 3395 0130 03       		.uleb128 0x3
 3396 0131 0E       		.uleb128 0xe
 3397 0132 3A       		.uleb128 0x3a
 3398 0133 0B       		.uleb128 0xb
 3399 0134 3B       		.uleb128 0x3b
 3400 0135 0B       		.uleb128 0xb
 3401 0136 27       		.uleb128 0x27
 3402 0137 19       		.uleb128 0x19
 3403 0138 49       		.uleb128 0x49
 3404 0139 13       		.uleb128 0x13
 3405 013a 11       		.uleb128 0x11
 3406 013b 01       		.uleb128 0x1
 3407 013c 12       		.uleb128 0x12
 3408 013d 06       		.uleb128 0x6
 3409 013e 40       		.uleb128 0x40
 3410 013f 18       		.uleb128 0x18
 3411 0140 9742     		.uleb128 0x2117
 3412 0142 19       		.uleb128 0x19
 3413 0143 01       		.uleb128 0x1
 3414 0144 13       		.uleb128 0x13
ARM GAS  C:\Users\mame\AppData\Local\Temp\ccpggl3x.s 			page 72


 3415 0145 00       		.byte	0
 3416 0146 00       		.byte	0
 3417 0147 16       		.uleb128 0x16
 3418 0148 2E       		.uleb128 0x2e
 3419 0149 01       		.byte	0x1
 3420 014a 3F       		.uleb128 0x3f
 3421 014b 19       		.uleb128 0x19
 3422 014c 03       		.uleb128 0x3
 3423 014d 0E       		.uleb128 0xe
 3424 014e 3A       		.uleb128 0x3a
 3425 014f 0B       		.uleb128 0xb
 3426 0150 3B       		.uleb128 0x3b
 3427 0151 0B       		.uleb128 0xb
 3428 0152 27       		.uleb128 0x27
 3429 0153 19       		.uleb128 0x19
 3430 0154 49       		.uleb128 0x49
 3431 0155 13       		.uleb128 0x13
 3432 0156 11       		.uleb128 0x11
 3433 0157 01       		.uleb128 0x1
 3434 0158 12       		.uleb128 0x12
 3435 0159 06       		.uleb128 0x6
 3436 015a 40       		.uleb128 0x40
 3437 015b 18       		.uleb128 0x18
 3438 015c 9642     		.uleb128 0x2116
 3439 015e 19       		.uleb128 0x19
 3440 015f 01       		.uleb128 0x1
 3441 0160 13       		.uleb128 0x13
 3442 0161 00       		.byte	0
 3443 0162 00       		.byte	0
 3444 0163 17       		.uleb128 0x17
 3445 0164 2E       		.uleb128 0x2e
 3446 0165 01       		.byte	0x1
 3447 0166 3F       		.uleb128 0x3f
 3448 0167 19       		.uleb128 0x19
 3449 0168 03       		.uleb128 0x3
 3450 0169 0E       		.uleb128 0xe
 3451 016a 3A       		.uleb128 0x3a
 3452 016b 0B       		.uleb128 0xb
 3453 016c 3B       		.uleb128 0x3b
 3454 016d 05       		.uleb128 0x5
 3455 016e 27       		.uleb128 0x27
 3456 016f 19       		.uleb128 0x19
 3457 0170 49       		.uleb128 0x49
 3458 0171 13       		.uleb128 0x13
 3459 0172 11       		.uleb128 0x11
 3460 0173 01       		.uleb128 0x1
 3461 0174 12       		.uleb128 0x12
 3462 0175 06       		.uleb128 0x6
 3463 0176 40       		.uleb128 0x40
 3464 0177 18       		.uleb128 0x18
 3465 0178 9742     		.uleb128 0x2117
 3466 017a 19       		.uleb128 0x19
 3467 017b 01       		.uleb128 0x1
 3468 017c 13       		.uleb128 0x13
 3469 017d 00       		.byte	0
 3470 017e 00       		.byte	0
 3471 017f 18       		.uleb128 0x18
ARM GAS  C:\Users\mame\AppData\Local\Temp\ccpggl3x.s 			page 73


 3472 0180 05       		.uleb128 0x5
 3473 0181 00       		.byte	0
 3474 0182 03       		.uleb128 0x3
 3475 0183 0E       		.uleb128 0xe
 3476 0184 3A       		.uleb128 0x3a
 3477 0185 0B       		.uleb128 0xb
 3478 0186 3B       		.uleb128 0x3b
 3479 0187 05       		.uleb128 0x5
 3480 0188 49       		.uleb128 0x49
 3481 0189 13       		.uleb128 0x13
 3482 018a 02       		.uleb128 0x2
 3483 018b 17       		.uleb128 0x17
 3484 018c 00       		.byte	0
 3485 018d 00       		.byte	0
 3486 018e 19       		.uleb128 0x19
 3487 018f 2E       		.uleb128 0x2e
 3488 0190 01       		.byte	0x1
 3489 0191 3F       		.uleb128 0x3f
 3490 0192 19       		.uleb128 0x19
 3491 0193 03       		.uleb128 0x3
 3492 0194 0E       		.uleb128 0xe
 3493 0195 3A       		.uleb128 0x3a
 3494 0196 0B       		.uleb128 0xb
 3495 0197 3B       		.uleb128 0x3b
 3496 0198 05       		.uleb128 0x5
 3497 0199 27       		.uleb128 0x27
 3498 019a 19       		.uleb128 0x19
 3499 019b 49       		.uleb128 0x49
 3500 019c 13       		.uleb128 0x13
 3501 019d 11       		.uleb128 0x11
 3502 019e 01       		.uleb128 0x1
 3503 019f 12       		.uleb128 0x12
 3504 01a0 06       		.uleb128 0x6
 3505 01a1 40       		.uleb128 0x40
 3506 01a2 18       		.uleb128 0x18
 3507 01a3 9642     		.uleb128 0x2116
 3508 01a5 19       		.uleb128 0x19
 3509 01a6 01       		.uleb128 0x1
 3510 01a7 13       		.uleb128 0x13
 3511 01a8 00       		.byte	0
 3512 01a9 00       		.byte	0
 3513 01aa 1A       		.uleb128 0x1a
 3514 01ab 34       		.uleb128 0x34
 3515 01ac 00       		.byte	0
 3516 01ad 03       		.uleb128 0x3
 3517 01ae 0E       		.uleb128 0xe
 3518 01af 3A       		.uleb128 0x3a
 3519 01b0 0B       		.uleb128 0xb
 3520 01b1 3B       		.uleb128 0x3b
 3521 01b2 05       		.uleb128 0x5
 3522 01b3 49       		.uleb128 0x49
 3523 01b4 13       		.uleb128 0x13
 3524 01b5 02       		.uleb128 0x2
 3525 01b6 18       		.uleb128 0x18
 3526 01b7 00       		.byte	0
 3527 01b8 00       		.byte	0
 3528 01b9 1B       		.uleb128 0x1b
ARM GAS  C:\Users\mame\AppData\Local\Temp\ccpggl3x.s 			page 74


 3529 01ba 34       		.uleb128 0x34
 3530 01bb 00       		.byte	0
 3531 01bc 03       		.uleb128 0x3
 3532 01bd 08       		.uleb128 0x8
 3533 01be 3A       		.uleb128 0x3a
 3534 01bf 0B       		.uleb128 0xb
 3535 01c0 3B       		.uleb128 0x3b
 3536 01c1 05       		.uleb128 0x5
 3537 01c2 49       		.uleb128 0x49
 3538 01c3 13       		.uleb128 0x13
 3539 01c4 02       		.uleb128 0x2
 3540 01c5 17       		.uleb128 0x17
 3541 01c6 00       		.byte	0
 3542 01c7 00       		.byte	0
 3543 01c8 1C       		.uleb128 0x1c
 3544 01c9 21       		.uleb128 0x21
 3545 01ca 00       		.byte	0
 3546 01cb 49       		.uleb128 0x49
 3547 01cc 13       		.uleb128 0x13
 3548 01cd 2F       		.uleb128 0x2f
 3549 01ce 05       		.uleb128 0x5
 3550 01cf 00       		.byte	0
 3551 01d0 00       		.byte	0
 3552 01d1 1D       		.uleb128 0x1d
 3553 01d2 34       		.uleb128 0x34
 3554 01d3 00       		.byte	0
 3555 01d4 03       		.uleb128 0x3
 3556 01d5 0E       		.uleb128 0xe
 3557 01d6 3A       		.uleb128 0x3a
 3558 01d7 0B       		.uleb128 0xb
 3559 01d8 3B       		.uleb128 0x3b
 3560 01d9 0B       		.uleb128 0xb
 3561 01da 49       		.uleb128 0x49
 3562 01db 13       		.uleb128 0x13
 3563 01dc 02       		.uleb128 0x2
 3564 01dd 18       		.uleb128 0x18
 3565 01de 00       		.byte	0
 3566 01df 00       		.byte	0
 3567 01e0 1E       		.uleb128 0x1e
 3568 01e1 34       		.uleb128 0x34
 3569 01e2 00       		.byte	0
 3570 01e3 03       		.uleb128 0x3
 3571 01e4 0E       		.uleb128 0xe
 3572 01e5 3A       		.uleb128 0x3a
 3573 01e6 0B       		.uleb128 0xb
 3574 01e7 3B       		.uleb128 0x3b
 3575 01e8 05       		.uleb128 0x5
 3576 01e9 49       		.uleb128 0x49
 3577 01ea 13       		.uleb128 0x13
 3578 01eb 3F       		.uleb128 0x3f
 3579 01ec 19       		.uleb128 0x19
 3580 01ed 3C       		.uleb128 0x3c
 3581 01ee 19       		.uleb128 0x19
 3582 01ef 00       		.byte	0
 3583 01f0 00       		.byte	0
 3584 01f1 1F       		.uleb128 0x1f
 3585 01f2 35       		.uleb128 0x35
ARM GAS  C:\Users\mame\AppData\Local\Temp\ccpggl3x.s 			page 75


 3586 01f3 00       		.byte	0
 3587 01f4 49       		.uleb128 0x49
 3588 01f5 13       		.uleb128 0x13
 3589 01f6 00       		.byte	0
 3590 01f7 00       		.byte	0
 3591 01f8 20       		.uleb128 0x20
 3592 01f9 34       		.uleb128 0x34
 3593 01fa 00       		.byte	0
 3594 01fb 03       		.uleb128 0x3
 3595 01fc 0E       		.uleb128 0xe
 3596 01fd 3A       		.uleb128 0x3a
 3597 01fe 0B       		.uleb128 0xb
 3598 01ff 3B       		.uleb128 0x3b
 3599 0200 0B       		.uleb128 0xb
 3600 0201 49       		.uleb128 0x49
 3601 0202 13       		.uleb128 0x13
 3602 0203 3F       		.uleb128 0x3f
 3603 0204 19       		.uleb128 0x19
 3604 0205 02       		.uleb128 0x2
 3605 0206 18       		.uleb128 0x18
 3606 0207 00       		.byte	0
 3607 0208 00       		.byte	0
 3608 0209 21       		.uleb128 0x21
 3609 020a 34       		.uleb128 0x34
 3610 020b 00       		.byte	0
 3611 020c 03       		.uleb128 0x3
 3612 020d 08       		.uleb128 0x8
 3613 020e 3A       		.uleb128 0x3a
 3614 020f 0B       		.uleb128 0xb
 3615 0210 3B       		.uleb128 0x3b
 3616 0211 0B       		.uleb128 0xb
 3617 0212 49       		.uleb128 0x49
 3618 0213 13       		.uleb128 0x13
 3619 0214 3F       		.uleb128 0x3f
 3620 0215 19       		.uleb128 0x19
 3621 0216 02       		.uleb128 0x2
 3622 0217 18       		.uleb128 0x18
 3623 0218 00       		.byte	0
 3624 0219 00       		.byte	0
 3625 021a 22       		.uleb128 0x22
 3626 021b 2E       		.uleb128 0x2e
 3627 021c 00       		.byte	0
 3628 021d 3F       		.uleb128 0x3f
 3629 021e 19       		.uleb128 0x19
 3630 021f 3C       		.uleb128 0x3c
 3631 0220 19       		.uleb128 0x19
 3632 0221 6E       		.uleb128 0x6e
 3633 0222 0E       		.uleb128 0xe
 3634 0223 03       		.uleb128 0x3
 3635 0224 0E       		.uleb128 0xe
 3636 0225 3A       		.uleb128 0x3a
 3637 0226 0B       		.uleb128 0xb
 3638 0227 3B       		.uleb128 0x3b
 3639 0228 0B       		.uleb128 0xb
 3640 0229 00       		.byte	0
 3641 022a 00       		.byte	0
 3642 022b 23       		.uleb128 0x23
ARM GAS  C:\Users\mame\AppData\Local\Temp\ccpggl3x.s 			page 76


 3643 022c 2E       		.uleb128 0x2e
 3644 022d 00       		.byte	0
 3645 022e 3F       		.uleb128 0x3f
 3646 022f 19       		.uleb128 0x19
 3647 0230 3C       		.uleb128 0x3c
 3648 0231 19       		.uleb128 0x19
 3649 0232 6E       		.uleb128 0x6e
 3650 0233 0E       		.uleb128 0xe
 3651 0234 03       		.uleb128 0x3
 3652 0235 0E       		.uleb128 0xe
 3653 0236 00       		.byte	0
 3654 0237 00       		.byte	0
 3655 0238 24       		.uleb128 0x24
 3656 0239 2E       		.uleb128 0x2e
 3657 023a 00       		.byte	0
 3658 023b 3F       		.uleb128 0x3f
 3659 023c 19       		.uleb128 0x19
 3660 023d 3C       		.uleb128 0x3c
 3661 023e 19       		.uleb128 0x19
 3662 023f 6E       		.uleb128 0x6e
 3663 0240 0E       		.uleb128 0xe
 3664 0241 03       		.uleb128 0x3
 3665 0242 0E       		.uleb128 0xe
 3666 0243 3A       		.uleb128 0x3a
 3667 0244 0B       		.uleb128 0xb
 3668 0245 3B       		.uleb128 0x3b
 3669 0246 0B       		.uleb128 0xb
 3670 0247 6E       		.uleb128 0x6e
 3671 0248 0E       		.uleb128 0xe
 3672 0249 00       		.byte	0
 3673 024a 00       		.byte	0
 3674 024b 00       		.byte	0
 3675              		.section	.debug_loc,"",%progbits
 3676              	.Ldebug_loc0:
 3677              	.LLST0:
 3678 0000 06000000 		.4byte	.LVL0
 3679 0004 10000000 		.4byte	.LVL1
 3680 0008 0100     		.2byte	0x1
 3681 000a 50       		.byte	0x50
 3682 000b 00000000 		.4byte	0
 3683 000f 00000000 		.4byte	0
 3684              	.LLST1:
 3685 0013 00000000 		.4byte	.LVL8
 3686 0017 06000000 		.4byte	.LVL9
 3687 001b 0100     		.2byte	0x1
 3688 001d 50       		.byte	0x50
 3689 001e 06000000 		.4byte	.LVL9
 3690 0022 28000000 		.4byte	.LFE68
 3691 0026 0100     		.2byte	0x1
 3692 0028 54       		.byte	0x54
 3693 0029 00000000 		.4byte	0
 3694 002d 00000000 		.4byte	0
 3695              	.LLST2:
 3696 0031 00000000 		.4byte	.LVL15
 3697 0035 0E000000 		.4byte	.LVL16
 3698 0039 0100     		.2byte	0x1
 3699 003b 50       		.byte	0x50
ARM GAS  C:\Users\mame\AppData\Local\Temp\ccpggl3x.s 			page 77


 3700 003c 0E000000 		.4byte	.LVL16
 3701 0040 16000000 		.4byte	.LVL18
 3702 0044 0100     		.2byte	0x1
 3703 0046 56       		.byte	0x56
 3704 0047 16000000 		.4byte	.LVL18
 3705 004b 6C000000 		.4byte	.LFE69
 3706 004f 0400     		.2byte	0x4
 3707 0051 F3       		.byte	0xf3
 3708 0052 01       		.uleb128 0x1
 3709 0053 50       		.byte	0x50
 3710 0054 9F       		.byte	0x9f
 3711 0055 00000000 		.4byte	0
 3712 0059 00000000 		.4byte	0
 3713              	.LLST3:
 3714 005d 00000000 		.4byte	.LVL25
 3715 0061 10000000 		.4byte	.LVL26
 3716 0065 0100     		.2byte	0x1
 3717 0067 50       		.byte	0x50
 3718 0068 10000000 		.4byte	.LVL26
 3719 006c 82000000 		.4byte	.LVL35
 3720 0070 0100     		.2byte	0x1
 3721 0072 55       		.byte	0x55
 3722 0073 82000000 		.4byte	.LVL35
 3723 0077 98000000 		.4byte	.LFE70
 3724 007b 0400     		.2byte	0x4
 3725 007d F3       		.byte	0xf3
 3726 007e 01       		.uleb128 0x1
 3727 007f 50       		.byte	0x50
 3728 0080 9F       		.byte	0x9f
 3729 0081 00000000 		.4byte	0
 3730 0085 00000000 		.4byte	0
 3731              	.LLST4:
 3732 0089 00000000 		.4byte	.LVL25
 3733 008d 13000000 		.4byte	.LVL27-1
 3734 0091 0100     		.2byte	0x1
 3735 0093 51       		.byte	0x51
 3736 0094 13000000 		.4byte	.LVL27-1
 3737 0098 82000000 		.4byte	.LVL35
 3738 009c 0100     		.2byte	0x1
 3739 009e 54       		.byte	0x54
 3740 009f 82000000 		.4byte	.LVL35
 3741 00a3 98000000 		.4byte	.LFE70
 3742 00a7 0400     		.2byte	0x4
 3743 00a9 F3       		.byte	0xf3
 3744 00aa 01       		.uleb128 0x1
 3745 00ab 51       		.byte	0x51
 3746 00ac 9F       		.byte	0x9f
 3747 00ad 00000000 		.4byte	0
 3748 00b1 00000000 		.4byte	0
 3749              	.LLST5:
 3750 00b5 00000000 		.4byte	.LVL36
 3751 00b9 0E000000 		.4byte	.LVL37
 3752 00bd 0100     		.2byte	0x1
 3753 00bf 50       		.byte	0x50
 3754 00c0 0E000000 		.4byte	.LVL37
 3755 00c4 9E010000 		.4byte	.LVL63
 3756 00c8 0100     		.2byte	0x1
ARM GAS  C:\Users\mame\AppData\Local\Temp\ccpggl3x.s 			page 78


 3757 00ca 54       		.byte	0x54
 3758 00cb 9E010000 		.4byte	.LVL63
 3759 00cf C8010000 		.4byte	.LFE71
 3760 00d3 0400     		.2byte	0x4
 3761 00d5 F3       		.byte	0xf3
 3762 00d6 01       		.uleb128 0x1
 3763 00d7 50       		.byte	0x50
 3764 00d8 9F       		.byte	0x9f
 3765 00d9 00000000 		.4byte	0
 3766 00dd 00000000 		.4byte	0
 3767              	.LLST6:
 3768 00e1 00000000 		.4byte	.LVL64
 3769 00e5 05000000 		.4byte	.LVL65-1
 3770 00e9 0100     		.2byte	0x1
 3771 00eb 50       		.byte	0x50
 3772 00ec 05000000 		.4byte	.LVL65-1
 3773 00f0 08000000 		.4byte	.LFE72
 3774 00f4 0400     		.2byte	0x4
 3775 00f6 F3       		.byte	0xf3
 3776 00f7 01       		.uleb128 0x1
 3777 00f8 50       		.byte	0x50
 3778 00f9 9F       		.byte	0x9f
 3779 00fa 00000000 		.4byte	0
 3780 00fe 00000000 		.4byte	0
 3781              	.LLST7:
 3782 0102 00000000 		.4byte	.LVL66
 3783 0106 0E000000 		.4byte	.LVL67
 3784 010a 0100     		.2byte	0x1
 3785 010c 50       		.byte	0x50
 3786 010d 0E000000 		.4byte	.LVL67
 3787 0111 D0000000 		.4byte	.LVL81
 3788 0115 0100     		.2byte	0x1
 3789 0117 55       		.byte	0x55
 3790 0118 D0000000 		.4byte	.LVL81
 3791 011c EC000000 		.4byte	.LFE73
 3792 0120 0400     		.2byte	0x4
 3793 0122 F3       		.byte	0xf3
 3794 0123 01       		.uleb128 0x1
 3795 0124 50       		.byte	0x50
 3796 0125 9F       		.byte	0x9f
 3797 0126 00000000 		.4byte	0
 3798 012a 00000000 		.4byte	0
 3799              	.LLST8:
 3800 012e 00000000 		.4byte	.LVL82
 3801 0132 0E000000 		.4byte	.LVL83
 3802 0136 0100     		.2byte	0x1
 3803 0138 50       		.byte	0x50
 3804 0139 0E000000 		.4byte	.LVL83
 3805 013d 6E010000 		.4byte	.LVL129
 3806 0141 0100     		.2byte	0x1
 3807 0143 59       		.byte	0x59
 3808 0144 6E010000 		.4byte	.LVL129
 3809 0148 84010000 		.4byte	.LFE74
 3810 014c 0400     		.2byte	0x4
 3811 014e F3       		.byte	0xf3
 3812 014f 01       		.uleb128 0x1
 3813 0150 50       		.byte	0x50
ARM GAS  C:\Users\mame\AppData\Local\Temp\ccpggl3x.s 			page 79


 3814 0151 9F       		.byte	0x9f
 3815 0152 00000000 		.4byte	0
 3816 0156 00000000 		.4byte	0
 3817              	.LLST9:
 3818 015a 62000000 		.4byte	.LVL88
 3819 015e FE000000 		.4byte	.LVL112
 3820 0162 0100     		.2byte	0x1
 3821 0164 55       		.byte	0x55
 3822 0165 00010000 		.4byte	.LVL113
 3823 0169 02010000 		.4byte	.LVL114
 3824 016d 0100     		.2byte	0x1
 3825 016f 55       		.byte	0x55
 3826 0170 04010000 		.4byte	.LVL115
 3827 0174 16010000 		.4byte	.LVL118
 3828 0178 0100     		.2byte	0x1
 3829 017a 55       		.byte	0x55
 3830 017b 00000000 		.4byte	0
 3831 017f 00000000 		.4byte	0
 3832              	.LLST10:
 3833 0183 A2000000 		.4byte	.LVL99
 3834 0187 B4000000 		.4byte	.LVL100
 3835 018b 0100     		.2byte	0x1
 3836 018d 53       		.byte	0x53
 3837 018e B6000000 		.4byte	.LVL101
 3838 0192 B8000000 		.4byte	.LVL102
 3839 0196 0100     		.2byte	0x1
 3840 0198 53       		.byte	0x53
 3841 0199 BA000000 		.4byte	.LVL103
 3842 019d CD000000 		.4byte	.LVL104-1
 3843 01a1 0100     		.2byte	0x1
 3844 01a3 53       		.byte	0x53
 3845 01a4 D0000000 		.4byte	.LVL105
 3846 01a8 E2000000 		.4byte	.LVL106
 3847 01ac 0100     		.2byte	0x1
 3848 01ae 53       		.byte	0x53
 3849 01af E4000000 		.4byte	.LVL107
 3850 01b3 E6000000 		.4byte	.LVL108
 3851 01b7 0100     		.2byte	0x1
 3852 01b9 53       		.byte	0x53
 3853 01ba E8000000 		.4byte	.LVL109
 3854 01be FB000000 		.4byte	.LVL111-1
 3855 01c2 0100     		.2byte	0x1
 3856 01c4 53       		.byte	0x53
 3857 01c5 14010000 		.4byte	.LVL117
 3858 01c9 18010000 		.4byte	.LVL119
 3859 01cd 0200     		.2byte	0x2
 3860 01cf 30       		.byte	0x30
 3861 01d0 9F       		.byte	0x9f
 3862 01d1 18010000 		.4byte	.LVL119
 3863 01d5 42010000 		.4byte	.LVL122
 3864 01d9 0100     		.2byte	0x1
 3865 01db 55       		.byte	0x55
 3866 01dc 44010000 		.4byte	.LVL123
 3867 01e0 52010000 		.4byte	.LVL124
 3868 01e4 0100     		.2byte	0x1
 3869 01e6 55       		.byte	0x55
 3870 01e7 00000000 		.4byte	0
ARM GAS  C:\Users\mame\AppData\Local\Temp\ccpggl3x.s 			page 80


 3871 01eb 00000000 		.4byte	0
 3872              	.LLST11:
 3873 01ef 50000000 		.4byte	.LVL86
 3874 01f3 54000000 		.4byte	.LVL87
 3875 01f7 0200     		.2byte	0x2
 3876 01f9 30       		.byte	0x30
 3877 01fa 9F       		.byte	0x9f
 3878 01fb 54000000 		.4byte	.LVL87
 3879 01ff 54010000 		.4byte	.LVL125
 3880 0203 0100     		.2byte	0x1
 3881 0205 56       		.byte	0x56
 3882 0206 56010000 		.4byte	.LVL126
 3883 020a 6E010000 		.4byte	.LVL129
 3884 020e 0100     		.2byte	0x1
 3885 0210 56       		.byte	0x56
 3886 0211 00000000 		.4byte	0
 3887 0215 00000000 		.4byte	0
 3888              	.LLST12:
 3889 0219 76000000 		.4byte	.LVL90
 3890 021d 7C000000 		.4byte	.LVL91
 3891 0221 0100     		.2byte	0x1
 3892 0223 50       		.byte	0x50
 3893 0224 9A000000 		.4byte	.LVL97
 3894 0228 A2000000 		.4byte	.LVL99
 3895 022c 0200     		.2byte	0x2
 3896 022e 31       		.byte	0x31
 3897 022f 9F       		.byte	0x9f
 3898 0230 D0000000 		.4byte	.LVL105
 3899 0234 F8000000 		.4byte	.LVL110
 3900 0238 0100     		.2byte	0x1
 3901 023a 50       		.byte	0x50
 3902 023b 00000000 		.4byte	0
 3903 023f 00000000 		.4byte	0
 3904              		.section	.debug_aranges,"",%progbits
 3905 0000 74000000 		.4byte	0x74
 3906 0004 0200     		.2byte	0x2
 3907 0006 00000000 		.4byte	.Ldebug_info0
 3908 000a 04       		.byte	0x4
 3909 000b 00       		.byte	0
 3910 000c 0000     		.2byte	0
 3911 000e 0000     		.2byte	0
 3912 0010 00000000 		.4byte	.LFB75
 3913 0014 1C000000 		.4byte	.LFE75-.LFB75
 3914 0018 00000000 		.4byte	.LFB64
 3915 001c 14000000 		.4byte	.LFE64-.LFB64
 3916 0020 00000000 		.4byte	.LFB65
 3917 0024 0C000000 		.4byte	.LFE65-.LFB65
 3918 0028 00000000 		.4byte	.LFB66
 3919 002c 20000000 		.4byte	.LFE66-.LFB66
 3920 0030 00000000 		.4byte	.LFB67
 3921 0034 08000000 		.4byte	.LFE67-.LFB67
 3922 0038 00000000 		.4byte	.LFB68
 3923 003c 28000000 		.4byte	.LFE68-.LFB68
 3924 0040 00000000 		.4byte	.LFB69
 3925 0044 6C000000 		.4byte	.LFE69-.LFB69
 3926 0048 00000000 		.4byte	.LFB70
 3927 004c 98000000 		.4byte	.LFE70-.LFB70
ARM GAS  C:\Users\mame\AppData\Local\Temp\ccpggl3x.s 			page 81


 3928 0050 00000000 		.4byte	.LFB71
 3929 0054 C8010000 		.4byte	.LFE71-.LFB71
 3930 0058 00000000 		.4byte	.LFB72
 3931 005c 08000000 		.4byte	.LFE72-.LFB72
 3932 0060 00000000 		.4byte	.LFB73
 3933 0064 EC000000 		.4byte	.LFE73-.LFB73
 3934 0068 00000000 		.4byte	.LFB74
 3935 006c 84010000 		.4byte	.LFE74-.LFB74
 3936 0070 00000000 		.4byte	0
 3937 0074 00000000 		.4byte	0
 3938              		.section	.debug_ranges,"",%progbits
 3939              	.Ldebug_ranges0:
 3940 0000 00000000 		.4byte	.LFB75
 3941 0004 1C000000 		.4byte	.LFE75
 3942 0008 00000000 		.4byte	.LFB64
 3943 000c 14000000 		.4byte	.LFE64
 3944 0010 00000000 		.4byte	.LFB65
 3945 0014 0C000000 		.4byte	.LFE65
 3946 0018 00000000 		.4byte	.LFB66
 3947 001c 20000000 		.4byte	.LFE66
 3948 0020 00000000 		.4byte	.LFB67
 3949 0024 08000000 		.4byte	.LFE67
 3950 0028 00000000 		.4byte	.LFB68
 3951 002c 28000000 		.4byte	.LFE68
 3952 0030 00000000 		.4byte	.LFB69
 3953 0034 6C000000 		.4byte	.LFE69
 3954 0038 00000000 		.4byte	.LFB70
 3955 003c 98000000 		.4byte	.LFE70
 3956 0040 00000000 		.4byte	.LFB71
 3957 0044 C8010000 		.4byte	.LFE71
 3958 0048 00000000 		.4byte	.LFB72
 3959 004c 08000000 		.4byte	.LFE72
 3960 0050 00000000 		.4byte	.LFB73
 3961 0054 EC000000 		.4byte	.LFE73
 3962 0058 00000000 		.4byte	.LFB74
 3963 005c 84010000 		.4byte	.LFE74
 3964 0060 00000000 		.4byte	0
 3965 0064 00000000 		.4byte	0
 3966              		.section	.debug_line,"",%progbits
 3967              	.Ldebug_line0:
 3968 0000 3D040000 		.section	.debug_str,"MS",%progbits,1
 3968      02005002 
 3968      00000201 
 3968      FB0E0D00 
 3968      01010101 
 3969              	.LASF47:
 3970 0000 76616C69 		.ascii	"valid\000"
 3970      6400
 3971              	.LASF75:
 3972 0006 7374726E 		.ascii	"strncpy\000"
 3972      63707900 
 3973              	.LASF39:
 3974 000e 6E65775F 		.ascii	"new_address\000"
 3974      61646472 
 3974      65737300 
 3975              	.LASF27:
 3976 001a 76657273 		.ascii	"version\000"
ARM GAS  C:\Users\mame\AppData\Local\Temp\ccpggl3x.s 			page 82


 3976      696F6E00 
 3977              	.LASF78:
 3978 0022 4C45445F 		.ascii	"LED_Write\000"
 3978      57726974 
 3978      6500
 3979              	.LASF48:
 3980 002c 53444931 		.ascii	"SDI12_uart_buf\000"
 3980      325F7561 
 3980      72745F62 
 3980      756600
 3981              	.LASF2:
 3982 003b 73686F72 		.ascii	"short int\000"
 3982      7420696E 
 3982      7400
 3983              	.LASF19:
 3984 0045 73697A65 		.ascii	"sizetype\000"
 3984      74797065 
 3984      00
 3985              	.LASF31:
 3986 004e 53444931 		.ascii	"SDI12_stop\000"
 3986      325F7374 
 3986      6F7000
 3987              	.LASF72:
 3988 0059 73747265 		.ascii	"strextract\000"
 3988      78747261 
 3988      637400
 3989              	.LASF69:
 3990 0064 636C6561 		.ascii	"clear_str\000"
 3990      725F7374 
 3990      7200
 3991              	.LASF58:
 3992 006e 7074725F 		.ascii	"ptr_end\000"
 3992      656E6400 
 3993              	.LASF18:
 3994 0076 6C6F6E67 		.ascii	"long double\000"
 3994      20646F75 
 3994      626C6500 
 3995              	.LASF33:
 3996 0082 6973725F 		.ascii	"isr_SDI12_data\000"
 3996      53444931 
 3996      325F6461 
 3996      746100
 3997              	.LASF51:
 3998 0091 73656E73 		.ascii	"sensors\000"
 3998      6F727300 
 3999              	.LASF60:
 4000 0099 53444931 		.ascii	"SDI12_UART_GetChar\000"
 4000      325F5541 
 4000      52545F47 
 4000      65744368 
 4000      617200
 4001              	.LASF82:
 4002 00ac 433A5C55 		.ascii	"C:\\Users\\mame\\Documents\\psoc\\SDI-12.cydsn\000"
 4002      73657273 
 4002      5C6D616D 
 4002      655C446F 
 4002      63756D65 
ARM GAS  C:\Users\mame\AppData\Local\Temp\ccpggl3x.s 			page 83


 4003              	.LASF36:
 4004 00d6 73656E73 		.ascii	"sensor\000"
 4004      6F7200
 4005              	.LASF37:
 4006 00dd 53444931 		.ascii	"SDI12_is_active\000"
 4006      325F6973 
 4006      5F616374 
 4006      69766500 
 4007              	.LASF13:
 4008 00ed 75696E74 		.ascii	"uint8\000"
 4008      3800
 4009              	.LASF77:
 4010 00f3 53444931 		.ascii	"SDI12_Power_Write\000"
 4010      325F506F 
 4010      7765725F 
 4010      57726974 
 4010      6500
 4011              	.LASF29:
 4012 0105 53444931 		.ascii	"SDI12_sensor\000"
 4012      325F7365 
 4012      6E736F72 
 4012      00
 4013              	.LASF0:
 4014 0112 7369676E 		.ascii	"signed char\000"
 4014      65642063 
 4014      68617200 
 4015              	.LASF63:
 4016 011e 6973725F 		.ascii	"isr_SDI12_Stop\000"
 4016      53444931 
 4016      325F5374 
 4016      6F7000
 4017              	.LASF57:
 4018 012d 64656C61 		.ascii	"delay_str\000"
 4018      795F7374 
 4018      7200
 4019              	.LASF15:
 4020 0137 666C6F61 		.ascii	"float\000"
 4020      7400
 4021              	.LASF64:
 4022 013d 53444931 		.ascii	"SDI12_UART_Stop\000"
 4022      325F5541 
 4022      52545F53 
 4022      746F7000 
 4023              	.LASF8:
 4024 014d 6C6F6E67 		.ascii	"long long int\000"
 4024      206C6F6E 
 4024      6720696E 
 4024      7400
 4025              	.LASF84:
 4026 015b 6D656D73 		.ascii	"memset\000"
 4026      657400
 4027              	.LASF76:
 4028 0162 73747274 		.ascii	"strtod\000"
 4028      6F6400
 4029              	.LASF6:
 4030 0169 6C6F6E67 		.ascii	"long int\000"
 4030      20696E74 
ARM GAS  C:\Users\mame\AppData\Local\Temp\ccpggl3x.s 			page 84


 4030      00
 4031              	.LASF86:
 4032 0172 5F5F6275 		.ascii	"__builtin_strchr\000"
 4032      696C7469 
 4032      6E5F7374 
 4032      72636872 
 4032      00
 4033              	.LASF20:
 4034 0183 61646472 		.ascii	"address\000"
 4034      65737300 
 4035              	.LASF21:
 4036 018b 6C616265 		.ascii	"labels\000"
 4036      6C7300
 4037              	.LASF22:
 4038 0192 76616C75 		.ascii	"values\000"
 4038      657300
 4039              	.LASF4:
 4040 0199 5F5F7569 		.ascii	"__uint8_t\000"
 4040      6E74385F 
 4040      7400
 4041              	.LASF65:
 4042 01a3 53444931 		.ascii	"SDI12_UART_ClearRxBuffer\000"
 4042      325F5541 
 4042      52545F43 
 4042      6C656172 
 4042      52784275 
 4043              	.LASF30:
 4044 01bc 53444931 		.ascii	"SDI12_start\000"
 4044      325F7374 
 4044      61727400 
 4045              	.LASF67:
 4046 01c8 43794465 		.ascii	"CyDelayUs\000"
 4046      6C617955 
 4046      7300
 4047              	.LASF1:
 4048 01d2 756E7369 		.ascii	"unsigned char\000"
 4048      676E6564 
 4048      20636861 
 4048      7200
 4049              	.LASF49:
 4050 01e0 53444931 		.ascii	"SDI12_buf_idx\000"
 4050      325F6275 
 4050      665F6964 
 4050      7800
 4051              	.LASF79:
 4052 01ee 626C696E 		.ascii	"blink_LED\000"
 4052      6B5F4C45 
 4052      4400
 4053              	.LASF70:
 4054 01f8 73707269 		.ascii	"sprintf\000"
 4054      6E746600 
 4055              	.LASF85:
 4056 0200 73747263 		.ascii	"strchr\000"
 4056      687200
 4057              	.LASF40:
 4058 0207 53444931 		.ascii	"SDI12_take_measurement\000"
 4058      325F7461 
ARM GAS  C:\Users\mame\AppData\Local\Temp\ccpggl3x.s 			page 85


 4058      6B655F6D 
 4058      65617375 
 4058      72656D65 
 4059              	.LASF9:
 4060 021e 6C6F6E67 		.ascii	"long long unsigned int\000"
 4060      206C6F6E 
 4060      6720756E 
 4060      7369676E 
 4060      65642069 
 4061              	.LASF10:
 4062 0235 756E7369 		.ascii	"unsigned int\000"
 4062      676E6564 
 4062      20696E74 
 4062      00
 4063              	.LASF73:
 4064 0242 73747273 		.ascii	"strstr\000"
 4064      747200
 4065              	.LASF81:
 4066 0249 53444931 		.ascii	"SDI12.c\000"
 4066      322E6300 
 4067              	.LASF59:
 4068 0251 7369676E 		.ascii	"sign\000"
 4068      00
 4069              	.LASF3:
 4070 0256 73686F72 		.ascii	"short unsigned int\000"
 4070      7420756E 
 4070      7369676E 
 4070      65642069 
 4070      6E7400
 4071              	.LASF53:
 4072 0269 4753335F 		.ascii	"GS3_labels\000"
 4072      6C616265 
 4072      6C7300
 4073              	.LASF56:
 4074 0274 76616C75 		.ascii	"value_str\000"
 4074      655F7374 
 4074      7200
 4075              	.LASF17:
 4076 027e 63686172 		.ascii	"char\000"
 4076      00
 4077              	.LASF74:
 4078 0283 7374726C 		.ascii	"strlen\000"
 4078      656E00
 4079              	.LASF12:
 4080 028a 696E7433 		.ascii	"int32_t\000"
 4080      325F7400 
 4081              	.LASF52:
 4082 0292 736F6C69 		.ascii	"solinst\000"
 4082      6E737400 
 4083              	.LASF28:
 4084 029a 73657269 		.ascii	"serial\000"
 4084      616C00
 4085              	.LASF62:
 4086 02a1 6973725F 		.ascii	"isr_SDI12_StartEx\000"
 4086      53444931 
 4086      325F5374 
 4086      61727445 
ARM GAS  C:\Users\mame\AppData\Local\Temp\ccpggl3x.s 			page 86


 4086      7800
 4087              	.LASF14:
 4088 02b3 75696E74 		.ascii	"uint32\000"
 4088      333200
 4089              	.LASF7:
 4090 02ba 6C6F6E67 		.ascii	"long unsigned int\000"
 4090      20756E73 
 4090      69676E65 
 4090      6420696E 
 4090      7400
 4091              	.LASF83:
 4092 02cc 73656E73 		.ascii	"sensors_uart_get_string\000"
 4092      6F72735F 
 4092      75617274 
 4092      5F676574 
 4092      5F737472 
 4093              	.LASF43:
 4094 02e4 7A69705F 		.ascii	"zip_SDI12\000"
 4094      53444931 
 4094      3200
 4095              	.LASF34:
 4096 02ee 53444931 		.ascii	"SDI12_send_command\000"
 4096      325F7365 
 4096      6E645F63 
 4096      6F6D6D61 
 4096      6E6400
 4097              	.LASF32:
 4098 0301 53444931 		.ascii	"SDI12_uart_clear_string\000"
 4098      325F7561 
 4098      72745F63 
 4098      6C656172 
 4098      5F737472 
 4099              	.LASF42:
 4100 0319 53444931 		.ascii	"SDI12_info\000"
 4100      325F696E 
 4100      666F00
 4101              	.LASF5:
 4102 0324 5F5F696E 		.ascii	"__int32_t\000"
 4102      7433325F 
 4102      7400
 4103              	.LASF45:
 4104 032e 72785F63 		.ascii	"rx_char\000"
 4104      68617200 
 4105              	.LASF61:
 4106 0336 53444931 		.ascii	"SDI12_UART_Start\000"
 4106      325F5541 
 4106      52545F53 
 4106      74617274 
 4106      00
 4107              	.LASF41:
 4108 0347 53444931 		.ascii	"SDI12_take_concurrent_measurement\000"
 4108      325F7461 
 4108      6B655F63 
 4108      6F6E6375 
 4108      7272656E 
 4109              	.LASF11:
 4110 0369 75696E74 		.ascii	"uint8_t\000"
ARM GAS  C:\Users\mame\AppData\Local\Temp\ccpggl3x.s 			page 87


 4110      385F7400 
 4111              	.LASF26:
 4112 0371 6D6F6465 		.ascii	"model\000"
 4112      6C00
 4113              	.LASF23:
 4114 0377 6E766172 		.ascii	"nvars\000"
 4114      7300
 4115              	.LASF66:
 4116 037d 53444931 		.ascii	"SDI12_control_reg_Write\000"
 4116      325F636F 
 4116      6E74726F 
 4116      6C5F7265 
 4116      675F5772 
 4117              	.LASF54:
 4118 0395 4753335F 		.ascii	"GS3_values\000"
 4118      76616C75 
 4118      657300
 4119              	.LASF46:
 4120 03a0 6F757470 		.ascii	"output\000"
 4120      757400
 4121              	.LASF16:
 4122 03a7 646F7562 		.ascii	"double\000"
 4122      6C6500
 4123              	.LASF44:
 4124 03ae 53444931 		.ascii	"SDI12_flag\000"
 4124      325F666C 
 4124      616700
 4125              	.LASF68:
 4126 03b9 53444931 		.ascii	"SDI12_UART_PutString\000"
 4126      325F5541 
 4126      52545F50 
 4126      75745374 
 4126      72696E67 
 4127              	.LASF50:
 4128 03ce 49544D5F 		.ascii	"ITM_RxBuffer\000"
 4128      52784275 
 4128      66666572 
 4128      00
 4129              	.LASF80:
 4130 03db 474E5520 		.ascii	"GNU C11 5.4.1 20160609 (release) [ARM/embedded-5-br"
 4130      43313120 
 4130      352E342E 
 4130      31203230 
 4130      31363036 
 4131 040e 616E6368 		.ascii	"anch revision 237715] -mcpu=cortex-m3 -mthumb -g -O"
 4131      20726576 
 4131      6973696F 
 4131      6E203233 
 4131      37373135 
 4132 0441 67202D66 		.ascii	"g -ffunction-sections -ffat-lto-objects\000"
 4132      66756E63 
 4132      74696F6E 
 4132      2D736563 
 4132      74696F6E 
 4133              	.LASF71:
 4134 0469 43794465 		.ascii	"CyDelay\000"
 4134      6C617900 
ARM GAS  C:\Users\mame\AppData\Local\Temp\ccpggl3x.s 			page 88


 4135              	.LASF24:
 4136 0471 765F5344 		.ascii	"v_SDI12\000"
 4136      49313200 
 4137              	.LASF25:
 4138 0479 76656E64 		.ascii	"vendor\000"
 4138      6F7200
 4139              	.LASF35:
 4140 0480 636F6D6D 		.ascii	"command\000"
 4140      616E6400 
 4141              	.LASF38:
 4142 0488 53444931 		.ascii	"SDI12_change_address\000"
 4142      325F6368 
 4142      616E6765 
 4142      5F616464 
 4142      72657373 
 4143              	.LASF55:
 4144 049d 6D735F64 		.ascii	"ms_delay\000"
 4144      656C6179 
 4144      00
 4145              		.ident	"GCC: (GNU Tools for ARM Embedded Processors) 5.4.1 20160609 (release) [ARM/embedded-5-bran
