ARM GAS  C:\Users\mame\AppData\Local\Temp\ccE2JfyV.s 			page 1


   1              		.syntax unified
   2              		.cpu cortex-m3
   3              		.fpu softvfp
   4              		.eabi_attribute 20, 1
   5              		.eabi_attribute 21, 1
   6              		.eabi_attribute 23, 3
   7              		.eabi_attribute 24, 1
   8              		.eabi_attribute 25, 1
   9              		.eabi_attribute 26, 1
  10              		.eabi_attribute 30, 1
  11              		.eabi_attribute 34, 1
  12              		.eabi_attribute 18, 4
  13              		.thumb
  14              		.syntax unified
  15              		.file	"strlib.c"
  16              		.text
  17              	.Ltext0:
  18              		.cfi_sections	.debug_frame
  19              		.section	.text.parse_influxdb,"ax",%progbits
  20              		.align	2
  21              		.global	parse_influxdb
  22              		.thumb
  23              		.thumb_func
  24              		.type	parse_influxdb, %function
  25              	parse_influxdb:
  26              	.LFB0:
  27              		.file 1 "strlib.c"
   1:strlib.c      **** /**
   2:strlib.c      ****  * @file strlib.c
   3:strlib.c      ****  * @brief Functions for parsing c strings.
   4:strlib.c      ****  * @author Brandon Wong, Ivan Mondragon
   5:strlib.c      ****  * @version TODO
   6:strlib.c      ****  * @date 2017-06-19
   7:strlib.c      ****  */
   8:strlib.c      **** 
   9:strlib.c      **** #include "strlib.h"
  10:strlib.c      **** #include <stdarg.h> /* va_list, va_start, va_arg, va_end */
  11:strlib.c      **** #include <stdlib.h>
  12:strlib.c      **** #include <string.h>
  13:strlib.c      **** 
  14:strlib.c      **** /*
  15:strlib.c      **** Searches InfluxDB json packet, "packet", for name and
  16:strlib.c      **** returns the associated value as a char array.
  17:strlib.c      **** Returns 1 if successful, and 0 if there was an error.
  18:strlib.c      **** 
  19:strlib.c      **** This is ported from packet_get_value() from packet.c in kLabUM/IoT
  20:strlib.c      **** */
  21:strlib.c      **** uint8_t parse_influxdb(char *value, char *packet, char *name) {
  28              		.loc 1 21 0
  29              		.cfi_startproc
  30              		@ args = 0, pretend = 0, frame = 0
  31              		@ frame_needed = 0, uses_anonymous_args = 0
  32              	.LVL0:
  33 0000 70B5     		push	{r4, r5, r6, lr}
  34              		.cfi_def_cfa_offset 16
  35              		.cfi_offset 4, -16
  36              		.cfi_offset 5, -12
ARM GAS  C:\Users\mame\AppData\Local\Temp\ccE2JfyV.s 			page 2


  37              		.cfi_offset 6, -8
  38              		.cfi_offset 14, -4
  39 0002 0646     		mov	r6, r0
  40 0004 0846     		mov	r0, r1
  41              	.LVL1:
  22:strlib.c      ****     char *a, *b;
  23:strlib.c      **** 
  24:strlib.c      ****     // Find the first occurence of "name" in "packet"
  25:strlib.c      ****     a = strstr(packet, name);
  42              		.loc 1 25 0
  43 0006 1146     		mov	r1, r2
  44              	.LVL2:
  45 0008 FFF7FEFF 		bl	strstr
  46              	.LVL3:
  26:strlib.c      ****     if (a == NULL) {
  47              		.loc 1 26 0
  48 000c 98B1     		cbz	r0, .L3
  27:strlib.c      ****         return 0u;
  28:strlib.c      ****     }
  29:strlib.c      **** 
  30:strlib.c      ****     // Move the pointer to the timestamp after the first occurence of "name"
  31:strlib.c      ****     // This marks where the value is
  32:strlib.c      ****     a = strstr(a, "Z\",") + strlen("Z\",");
  49              		.loc 1 32 0
  50 000e 0D49     		ldr	r1, .L7
  51 0010 FFF7FEFF 		bl	strstr
  52              	.LVL4:
  33:strlib.c      ****     if (a == NULL) {
  53              		.loc 1 33 0
  54 0014 C51C     		adds	r5, r0, #3
  55              	.LVL5:
  56 0016 10D0     		beq	.L4
  34:strlib.c      ****         return 0u;
  35:strlib.c      ****     }
  36:strlib.c      **** 
  37:strlib.c      ****     // Find the closing bracket that follows the timestamp, marking the end of
  38:strlib.c      ****     // the value
  39:strlib.c      ****     b = strstr(a, "]");
  57              		.loc 1 39 0
  58 0018 5D21     		movs	r1, #93
  59 001a 2846     		mov	r0, r5
  60 001c FFF7FEFF 		bl	strchr
  61              	.LVL6:
  40:strlib.c      ****     if (b == NULL) {
  62              		.loc 1 40 0
  63 0020 68B1     		cbz	r0, .L5
  41:strlib.c      ****         return 0u;
  42:strlib.c      ****     }
  43:strlib.c      **** 
  44:strlib.c      ****     strncpy(value, a, b - a);
  64              		.loc 1 44 0
  65 0022 441B     		subs	r4, r0, r5
  66 0024 2246     		mov	r2, r4
  67 0026 2946     		mov	r1, r5
  68 0028 3046     		mov	r0, r6
  69              	.LVL7:
  70 002a FFF7FEFF 		bl	strncpy
ARM GAS  C:\Users\mame\AppData\Local\Temp\ccE2JfyV.s 			page 3


  71              	.LVL8:
  45:strlib.c      ****     value[b - a] = '\0';
  72              		.loc 1 45 0
  73 002e 0023     		movs	r3, #0
  74 0030 3355     		strb	r3, [r6, r4]
  46:strlib.c      ****     return 1u;
  75              		.loc 1 46 0
  76 0032 0120     		movs	r0, #1
  77 0034 70BD     		pop	{r4, r5, r6, pc}
  78              	.LVL9:
  79              	.L3:
  27:strlib.c      ****     }
  80              		.loc 1 27 0
  81 0036 0020     		movs	r0, #0
  82              	.LVL10:
  83 0038 70BD     		pop	{r4, r5, r6, pc}
  84              	.LVL11:
  85              	.L4:
  34:strlib.c      ****     }
  86              		.loc 1 34 0
  87 003a 0020     		movs	r0, #0
  88 003c 70BD     		pop	{r4, r5, r6, pc}
  89              	.LVL12:
  90              	.L5:
  41:strlib.c      ****     }
  91              		.loc 1 41 0
  92 003e 0020     		movs	r0, #0
  93              	.LVL13:
  47:strlib.c      **** }
  94              		.loc 1 47 0
  95 0040 70BD     		pop	{r4, r5, r6, pc}
  96              	.LVL14:
  97              	.L8:
  98 0042 00BF     		.align	2
  99              	.L7:
 100 0044 00000000 		.word	.LC0
 101              		.cfi_endproc
 102              	.LFE0:
 103              		.size	parse_influxdb, .-parse_influxdb
 104              		.section	.text.strparse_influxdb,"ax",%progbits
 105              		.align	2
 106              		.global	strparse_influxdb
 107              		.thumb
 108              		.thumb_func
 109              		.type	strparse_influxdb, %function
 110              	strparse_influxdb:
 111              	.LFB1:
  48:strlib.c      **** 
  49:strlib.c      **** /*
  50:strlib.c      **** Searches InfluxDB json-packet, "packet" for "name" and
  51:strlib.c      **** stores the associated value as string in "param".
  52:strlib.c      **** Removes the quotations that wrap the strings returned in the query.
  53:strlib.c      **** Returns 1 if successful, and 0 if there was an error.
  54:strlib.c      **** */
  55:strlib.c      **** uint8_t strparse_influxdb(char *param, char *packet, char *name) {
 112              		.loc 1 55 0
 113              		.cfi_startproc
ARM GAS  C:\Users\mame\AppData\Local\Temp\ccE2JfyV.s 			page 4


 114              		@ args = 0, pretend = 0, frame = 104
 115              		@ frame_needed = 0, uses_anonymous_args = 0
 116              	.LVL15:
 117 0000 70B5     		push	{r4, r5, r6, lr}
 118              		.cfi_def_cfa_offset 16
 119              		.cfi_offset 4, -16
 120              		.cfi_offset 5, -12
 121              		.cfi_offset 6, -8
 122              		.cfi_offset 14, -4
 123 0002 9AB0     		sub	sp, sp, #104
 124              		.cfi_def_cfa_offset 120
 125 0004 0646     		mov	r6, r0
 126 0006 0C46     		mov	r4, r1
 127 0008 1546     		mov	r5, r2
  56:strlib.c      ****     // assume a string no longer than 100 bytes is stored
  57:strlib.c      ****     char value_str[100] = {'\0'};
 128              		.loc 1 57 0
 129 000a 6422     		movs	r2, #100
 130              	.LVL16:
 131 000c 0021     		movs	r1, #0
 132              	.LVL17:
 133 000e 01A8     		add	r0, sp, #4
 134              	.LVL18:
 135 0010 FFF7FEFF 		bl	memset
 136              	.LVL19:
  58:strlib.c      **** 
  59:strlib.c      ****     if (parse_influxdb(value_str, packet, name) == 1u) {
 137              		.loc 1 59 0
 138 0014 2A46     		mov	r2, r5
 139 0016 2146     		mov	r1, r4
 140 0018 01A8     		add	r0, sp, #4
 141 001a FFF7FEFF 		bl	parse_influxdb
 142              	.LVL20:
 143 001e 0128     		cmp	r0, #1
 144 0020 15D1     		bne	.L11
 145 0022 0446     		mov	r4, r0
 146              	.LVL21:
  60:strlib.c      ****         if (strstr(value_str, "null") == NULL) {
 147              		.loc 1 60 0
 148 0024 0D49     		ldr	r1, .L14
 149 0026 01A8     		add	r0, sp, #4
 150 0028 FFF7FEFF 		bl	strstr
 151              	.LVL22:
 152 002c 88B9     		cbnz	r0, .L12
  61:strlib.c      ****             // Copy the result into "param"
  62:strlib.c      ****             strncpy(param, value_str + 1, strlen(value_str) - 2);
 153              		.loc 1 62 0
 154 002e 01A8     		add	r0, sp, #4
 155 0030 FFF7FEFF 		bl	strlen
 156              	.LVL23:
 157 0034 821E     		subs	r2, r0, #2
 158 0036 0DF10501 		add	r1, sp, #5
 159 003a 3046     		mov	r0, r6
 160 003c FFF7FEFF 		bl	strncpy
 161              	.LVL24:
  63:strlib.c      ****             param[strlen(value_str) - 2] = '\0';
 162              		.loc 1 63 0
ARM GAS  C:\Users\mame\AppData\Local\Temp\ccE2JfyV.s 			page 5


 163 0040 01A8     		add	r0, sp, #4
 164 0042 FFF7FEFF 		bl	strlen
 165              	.LVL25:
 166 0046 0238     		subs	r0, r0, #2
 167 0048 0023     		movs	r3, #0
 168 004a 3354     		strb	r3, [r6, r0]
  64:strlib.c      **** 
  65:strlib.c      ****             return 1u;
 169              		.loc 1 65 0
 170 004c 02E0     		b	.L10
 171              	.LVL26:
 172              	.L11:
  66:strlib.c      ****         }
  67:strlib.c      ****     }
  68:strlib.c      **** 
  69:strlib.c      ****     return 0u;
 173              		.loc 1 69 0
 174 004e 0024     		movs	r4, #0
 175              	.LVL27:
 176 0050 00E0     		b	.L10
 177              	.L12:
 178 0052 0024     		movs	r4, #0
 179              	.L10:
  70:strlib.c      **** }
 180              		.loc 1 70 0
 181 0054 2046     		mov	r0, r4
 182 0056 1AB0     		add	sp, sp, #104
 183              		.cfi_def_cfa_offset 16
 184              		@ sp needed
 185 0058 70BD     		pop	{r4, r5, r6, pc}
 186              	.LVL28:
 187              	.L15:
 188 005a 00BF     		.align	2
 189              	.L14:
 190 005c 04000000 		.word	.LC1
 191              		.cfi_endproc
 192              	.LFE1:
 193              		.size	strparse_influxdb, .-strparse_influxdb
 194              		.section	.text.intparse_influxdb,"ax",%progbits
 195              		.align	2
 196              		.global	intparse_influxdb
 197              		.thumb
 198              		.thumb_func
 199              		.type	intparse_influxdb, %function
 200              	intparse_influxdb:
 201              	.LFB2:
  71:strlib.c      **** 
  72:strlib.c      **** /*
  73:strlib.c      **** Searches InfluxDB json-packet, "packet" for "name" and
  74:strlib.c      **** stores the associated value as int in "param".
  75:strlib.c      **** Returns 1 if successful, and 0 if there was an error.
  76:strlib.c      **** */
  77:strlib.c      **** uint8_t intparse_influxdb(int *param, char *packet, char *name) {
 202              		.loc 1 77 0
 203              		.cfi_startproc
 204              		@ args = 0, pretend = 0, frame = 24
 205              		@ frame_needed = 0, uses_anonymous_args = 0
ARM GAS  C:\Users\mame\AppData\Local\Temp\ccE2JfyV.s 			page 6


 206              	.LVL29:
 207 0000 10B5     		push	{r4, lr}
 208              		.cfi_def_cfa_offset 8
 209              		.cfi_offset 4, -8
 210              		.cfi_offset 14, -4
 211 0002 86B0     		sub	sp, sp, #24
 212              		.cfi_def_cfa_offset 32
 213 0004 0446     		mov	r4, r0
  78:strlib.c      ****     char value_str[20] = {'\0'};  // note, int is at most 5 digits long
 214              		.loc 1 78 0
 215 0006 0023     		movs	r3, #0
 216 0008 0193     		str	r3, [sp, #4]
 217 000a 0293     		str	r3, [sp, #8]
 218 000c 0393     		str	r3, [sp, #12]
 219 000e 0493     		str	r3, [sp, #16]
 220 0010 0593     		str	r3, [sp, #20]
  79:strlib.c      **** 
  80:strlib.c      ****     if (parse_influxdb(value_str, packet, name)) {
 221              		.loc 1 80 0
 222 0012 01A8     		add	r0, sp, #4
 223              	.LVL30:
 224 0014 FFF7FEFF 		bl	parse_influxdb
 225              	.LVL31:
 226 0018 0346     		mov	r3, r0
 227 001a 30B1     		cbz	r0, .L17
  81:strlib.c      ****         *param = (int) strtol(value_str, (char **) NULL, 10);  // Base 10
 228              		.loc 1 81 0
 229 001c 0A22     		movs	r2, #10
 230 001e 0021     		movs	r1, #0
 231 0020 01A8     		add	r0, sp, #4
 232 0022 FFF7FEFF 		bl	strtol
 233              	.LVL32:
 234 0026 2060     		str	r0, [r4]
  82:strlib.c      ****         // http://www.cplusplus.com/reference/cstdlib/strtol/
  83:strlib.c      ****         return 1u;
 235              		.loc 1 83 0
 236 0028 0123     		movs	r3, #1
 237              	.L17:
  84:strlib.c      ****     }
  85:strlib.c      **** 
  86:strlib.c      ****     return 0u;
  87:strlib.c      **** }
 238              		.loc 1 87 0
 239 002a 1846     		mov	r0, r3
 240 002c 06B0     		add	sp, sp, #24
 241              		.cfi_def_cfa_offset 8
 242              		@ sp needed
 243 002e 10BD     		pop	{r4, pc}
 244              		.cfi_endproc
 245              	.LFE2:
 246              		.size	intparse_influxdb, .-intparse_influxdb
 247              		.section	.text.clear_str,"ax",%progbits
 248              		.align	2
 249              		.global	clear_str
 250              		.thumb
 251              		.thumb_func
 252              		.type	clear_str, %function
ARM GAS  C:\Users\mame\AppData\Local\Temp\ccE2JfyV.s 			page 7


 253              	clear_str:
 254              	.LFB3:
  88:strlib.c      **** 
  89:strlib.c      **** /**
  90:strlib.c      ****  * @brief Clear a string by using memset() to replace all characters with '\0' (null char)
  91:strlib.c      ****  * 
  92:strlib.c      ****  * @param str String to be cleared
  93:strlib.c      ****  *
  94:strlib.c      ****  * @return 1u 
  95:strlib.c      ****  */
  96:strlib.c      **** uint8_t clear_str(char *str) {
 255              		.loc 1 96 0
 256              		.cfi_startproc
 257              		@ args = 0, pretend = 0, frame = 0
 258              		@ frame_needed = 0, uses_anonymous_args = 0
 259              	.LVL33:
 260 0000 10B5     		push	{r4, lr}
 261              		.cfi_def_cfa_offset 8
 262              		.cfi_offset 4, -8
 263              		.cfi_offset 14, -4
 264 0002 0446     		mov	r4, r0
  97:strlib.c      ****     memset(str, '\0', strlen(str));
 265              		.loc 1 97 0
 266 0004 FFF7FEFF 		bl	strlen
 267              	.LVL34:
 268 0008 0246     		mov	r2, r0
 269 000a 0021     		movs	r1, #0
 270 000c 2046     		mov	r0, r4
 271 000e FFF7FEFF 		bl	memset
 272              	.LVL35:
  98:strlib.c      ****     return 1u;
  99:strlib.c      **** }
 273              		.loc 1 99 0
 274 0012 0120     		movs	r0, #1
 275 0014 10BD     		pop	{r4, pc}
 276              		.cfi_endproc
 277              	.LFE3:
 278              		.size	clear_str, .-clear_str
 279 0016 00BF     		.section	.text.zips,"ax",%progbits
 280              		.align	2
 281              		.global	zips
 282              		.thumb
 283              		.thumb_func
 284              		.type	zips, %function
 285              	zips:
 286              	.LFB4:
 100:strlib.c      **** 
 101:strlib.c      **** /**
 102:strlib.c      ****  * @brief Append a variable number of strings to the array of measurement labels 
 103:strlib.c      ****  *
 104:strlib.c      ****  * @param begin Array of strings (used as a string pointer) to store labels corresponding to each s
 105:strlib.c      ****  *        begin starts by pointing to where the first string in the variable-length list will be in
 106:strlib.c      ****  * @param end Array to strings (used as a string pointer) to indicate when to stop inserting labels
 107:strlib.c      ****  * @param ... comma-separated list of strings. The list is of variable length
 108:strlib.c      ****  *
 109:strlib.c      ****  * @return none
 110:strlib.c      ****  */
ARM GAS  C:\Users\mame\AppData\Local\Temp\ccE2JfyV.s 			page 8


 111:strlib.c      **** void zips(char *begin[], char *end[], ...) {
 287              		.loc 1 111 0
 288              		.cfi_startproc
 289              		@ args = 4, pretend = 12, frame = 8
 290              		@ frame_needed = 0, uses_anonymous_args = 1
 291              		@ link register save eliminated.
 292              	.LVL36:
 293 0000 0EB4     		push	{r1, r2, r3}
 294              		.cfi_def_cfa_offset 12
 295              		.cfi_offset 1, -12
 296              		.cfi_offset 2, -8
 297              		.cfi_offset 3, -4
 298 0002 83B0     		sub	sp, sp, #12
 299              		.cfi_def_cfa_offset 24
 300 0004 03AB     		add	r3, sp, #12
 301 0006 53F8041B 		ldr	r1, [r3], #4
 112:strlib.c      ****     va_list args;
 113:strlib.c      ****     va_start(args, end);
 302              		.loc 1 113 0
 303 000a 0193     		str	r3, [sp, #4]
 114:strlib.c      **** 
 115:strlib.c      ****     while (begin < end) {
 304              		.loc 1 115 0
 305 000c 05E0     		b	.L22
 306              	.L23:
 307              	.LVL37:
 116:strlib.c      ****         *begin++ = va_arg(args, char *);
 308              		.loc 1 116 0
 309 000e 019B     		ldr	r3, [sp, #4]
 310 0010 1A1D     		adds	r2, r3, #4
 311 0012 0192     		str	r2, [sp, #4]
 312 0014 1B68     		ldr	r3, [r3]
 313 0016 0360     		str	r3, [r0]
 314 0018 0430     		adds	r0, r0, #4
 315              	.LVL38:
 316              	.L22:
 115:strlib.c      ****         *begin++ = va_arg(args, char *);
 317              		.loc 1 115 0
 318 001a 8842     		cmp	r0, r1
 319 001c F7D3     		bcc	.L23
 117:strlib.c      ****     }
 118:strlib.c      **** 
 119:strlib.c      ****     va_end(args);
 120:strlib.c      **** }
 320              		.loc 1 120 0
 321 001e 03B0     		add	sp, sp, #12
 322              		.cfi_def_cfa_offset 12
 323              		@ sp needed
 324 0020 03B0     		add	sp, sp, #12
 325              		.cfi_restore 3
 326              		.cfi_restore 2
 327              		.cfi_restore 1
 328              		.cfi_def_cfa_offset 0
 329 0022 7047     		bx	lr
 330              		.cfi_endproc
 331              	.LFE4:
 332              		.size	zips, .-zips
ARM GAS  C:\Users\mame\AppData\Local\Temp\ccE2JfyV.s 			page 9


 333              		.global	__aeabi_d2f
 334              		.section	.text.zipf,"ax",%progbits
 335              		.align	2
 336              		.global	zipf
 337              		.thumb
 338              		.thumb_func
 339              		.type	zipf, %function
 340              	zipf:
 341              	.LFB5:
 121:strlib.c      **** /** Possible edit, where n_labels is the number of labels to be added
 122:strlib.c      ****  * (Uses a for-loop to replace while-loop)
 123:strlib.c      ****  * void zips(char *labels[], int n_labels, ...)
 124:strlib.c      ****  * va_list args;
 125:strlib.c      ****  * va_start(args, n_labels);
 126:strlib.c      ****  * int i;
 127:strlib.c      ****  *
 128:strlib.c      ****  * for(i = 0; i < n_labels; i++) {
 129:strlib.c      ****  *      *labels++ = va_arg(args, char *);
 130:strlib.c      ****  * }
 131:strlib.c      ****  *
 132:strlib.c      ****  * va_end(args);
 133:strlib.c      ****  */
 134:strlib.c      **** 
 135:strlib.c      **** 
 136:strlib.c      **** /**
 137:strlib.c      ****  * @brief Append a variable number of floats to the array of measurement values 
 138:strlib.c      ****  *
 139:strlib.c      ****  * @param begin Array of floats to store values corresponding to each sensor reading.
 140:strlib.c      ****  *        begin starts by pointing to where the first value in the variable-length list will be ins
 141:strlib.c      ****  * @param end   Array to floats (used as a pointer) to indicate when to stop inserting values
 142:strlib.c      ****  * @param ... comma-separated list of values. The list is of variable length
 143:strlib.c      ****  *
 144:strlib.c      ****  * @return none
 145:strlib.c      ****  */
 146:strlib.c      **** void zipf(float begin[], float end[], ...) {
 342              		.loc 1 146 0
 343              		.cfi_startproc
 344              		@ args = 4, pretend = 12, frame = 8
 345              		@ frame_needed = 0, uses_anonymous_args = 1
 346              	.LVL39:
 347 0000 0EB4     		push	{r1, r2, r3}
 348              		.cfi_def_cfa_offset 12
 349              		.cfi_offset 1, -12
 350              		.cfi_offset 2, -8
 351              		.cfi_offset 3, -4
 352 0002 70B5     		push	{r4, r5, r6, lr}
 353              		.cfi_def_cfa_offset 28
 354              		.cfi_offset 4, -28
 355              		.cfi_offset 5, -24
 356              		.cfi_offset 6, -20
 357              		.cfi_offset 14, -16
 358 0004 83B0     		sub	sp, sp, #12
 359              		.cfi_def_cfa_offset 40
 360 0006 0446     		mov	r4, r0
 361 0008 07AB     		add	r3, sp, #28
 362 000a 53F8046B 		ldr	r6, [r3], #4
 147:strlib.c      ****     va_list args;
ARM GAS  C:\Users\mame\AppData\Local\Temp\ccE2JfyV.s 			page 10


 148:strlib.c      ****     va_start(args, end);
 363              		.loc 1 148 0
 364 000e 0193     		str	r3, [sp, #4]
 149:strlib.c      **** 
 150:strlib.c      ****     while (begin < end) {
 365              		.loc 1 150 0
 366 0010 0DE0     		b	.L26
 367              	.LVL40:
 368              	.L27:
 151:strlib.c      ****         *begin++ = va_arg(args, double);
 369              		.loc 1 151 0
 370 0012 251D     		adds	r5, r4, #4
 371              	.LVL41:
 372 0014 019B     		ldr	r3, [sp, #4]
 373 0016 0733     		adds	r3, r3, #7
 374 0018 23F00703 		bic	r3, r3, #7
 375 001c 03F10802 		add	r2, r3, #8
 376 0020 0192     		str	r2, [sp, #4]
 377 0022 D3E90001 		ldrd	r0, [r3]
 378 0026 FFF7FEFF 		bl	__aeabi_d2f
 379              	.LVL42:
 380 002a 2060     		str	r0, [r4]	@ float
 381 002c 2C46     		mov	r4, r5
 382              	.LVL43:
 383              	.L26:
 150:strlib.c      ****         *begin++ = va_arg(args, double);
 384              		.loc 1 150 0
 385 002e B442     		cmp	r4, r6
 386 0030 EFD3     		bcc	.L27
 152:strlib.c      ****     }
 153:strlib.c      **** 
 154:strlib.c      ****     va_end(args);
 155:strlib.c      **** }
 387              		.loc 1 155 0
 388 0032 03B0     		add	sp, sp, #12
 389              		.cfi_def_cfa_offset 28
 390              		@ sp needed
 391 0034 BDE87040 		pop	{r4, r5, r6, lr}
 392              		.cfi_restore 14
 393              		.cfi_restore 6
 394              		.cfi_restore 5
 395              		.cfi_restore 4
 396              		.cfi_def_cfa_offset 12
 397              	.LVL44:
 398 0038 03B0     		add	sp, sp, #12
 399              		.cfi_restore 3
 400              		.cfi_restore 2
 401              		.cfi_restore 1
 402              		.cfi_def_cfa_offset 0
 403 003a 7047     		bx	lr
 404              		.cfi_endproc
 405              	.LFE5:
 406              		.size	zipf, .-zipf
 407              		.section	.text.strextract,"ax",%progbits
 408              		.align	2
 409              		.global	strextract
 410              		.thumb
ARM GAS  C:\Users\mame\AppData\Local\Temp\ccE2JfyV.s 			page 11


 411              		.thumb_func
 412              		.type	strextract, %function
 413              	strextract:
 414              	.LFB6:
 156:strlib.c      **** /** Possible edit is similar to the suggestion above, 
 157:strlib.c      ****  *  where the number of readings is declared explicitly
 158:strlib.c      ****  *  allowing us to replace the while-loop with a for-loop
 159:strlib.c      ****  */
 160:strlib.c      **** 
 161:strlib.c      **** 
 162:strlib.c      **** char *strextract(const char input_str[], char output_str[],
 163:strlib.c      ****                  const char search_start[], const char search_end[]) {
 415              		.loc 1 163 0
 416              		.cfi_startproc
 417              		@ args = 0, pretend = 0, frame = 0
 418              		@ frame_needed = 0, uses_anonymous_args = 0
 419              	.LVL45:
 164:strlib.c      ****     if (input_str == NULL) return NULL;
 420              		.loc 1 164 0
 421 0000 E0B1     		cbz	r0, .L31
 163:strlib.c      ****     if (input_str == NULL) return NULL;
 422              		.loc 1 163 0
 423 0002 F8B5     		push	{r3, r4, r5, r6, r7, lr}
 424              		.cfi_def_cfa_offset 24
 425              		.cfi_offset 3, -24
 426              		.cfi_offset 4, -20
 427              		.cfi_offset 5, -16
 428              		.cfi_offset 6, -12
 429              		.cfi_offset 7, -8
 430              		.cfi_offset 14, -4
 431 0004 1F46     		mov	r7, r3
 432 0006 1546     		mov	r5, r2
 433 0008 0E46     		mov	r6, r1
 434              	.LVL46:
 165:strlib.c      ****     char *begin, *end = NULL;
 166:strlib.c      **** 
 167:strlib.c      ****     if ((begin = strstr(input_str, search_start))) {
 435              		.loc 1 167 0
 436 000a 1146     		mov	r1, r2
 437              	.LVL47:
 438 000c FFF7FEFF 		bl	strstr
 439              	.LVL48:
 440 0010 0446     		mov	r4, r0
 441 0012 A8B1     		cbz	r0, .L32
 168:strlib.c      ****         begin += strlen(search_start);
 442              		.loc 1 168 0
 443 0014 2846     		mov	r0, r5
 444              	.LVL49:
 445 0016 FFF7FEFF 		bl	strlen
 446              	.LVL50:
 447 001a 0444     		add	r4, r4, r0
 448              	.LVL51:
 169:strlib.c      ****         if ((end = strstr(begin, search_end))) {
 449              		.loc 1 169 0
 450 001c 3946     		mov	r1, r7
 451 001e 2046     		mov	r0, r4
 452 0020 FFF7FEFF 		bl	strstr
ARM GAS  C:\Users\mame\AppData\Local\Temp\ccE2JfyV.s 			page 12


 453              	.LVL52:
 454 0024 0546     		mov	r5, r0
 455              	.LVL53:
 456 0026 68B1     		cbz	r0, .L33
 170:strlib.c      ****             strncpy(output_str, begin, end - begin);
 457              		.loc 1 170 0
 458 0028 071B     		subs	r7, r0, r4
 459              	.LVL54:
 460 002a 3A46     		mov	r2, r7
 461 002c 2146     		mov	r1, r4
 462 002e 3046     		mov	r0, r6
 463              	.LVL55:
 464 0030 FFF7FEFF 		bl	strncpy
 465              	.LVL56:
 171:strlib.c      ****             output_str[end - begin] = '\0';
 466              		.loc 1 171 0
 467 0034 0023     		movs	r3, #0
 468 0036 F355     		strb	r3, [r6, r7]
 169:strlib.c      ****         if ((end = strstr(begin, search_end))) {
 469              		.loc 1 169 0
 470 0038 2846     		mov	r0, r5
 471 003a F8BD     		pop	{r3, r4, r5, r6, r7, pc}
 472              	.LVL57:
 473              	.L31:
 474              		.cfi_def_cfa_offset 0
 475              		.cfi_restore 3
 476              		.cfi_restore 4
 477              		.cfi_restore 5
 478              		.cfi_restore 6
 479              		.cfi_restore 7
 480              		.cfi_restore 14
 164:strlib.c      ****     char *begin, *end = NULL;
 481              		.loc 1 164 0
 482 003c 0020     		movs	r0, #0
 483              	.LVL58:
 172:strlib.c      ****         }
 173:strlib.c      ****     }
 174:strlib.c      **** 
 175:strlib.c      ****     return end;
 176:strlib.c      **** }
 484              		.loc 1 176 0
 485 003e 7047     		bx	lr
 486              	.LVL59:
 487              	.L32:
 488              		.cfi_def_cfa_offset 24
 489              		.cfi_offset 3, -24
 490              		.cfi_offset 4, -20
 491              		.cfi_offset 5, -16
 492              		.cfi_offset 6, -12
 493              		.cfi_offset 7, -8
 494              		.cfi_offset 14, -4
 165:strlib.c      **** 
 495              		.loc 1 165 0
 496 0040 0020     		movs	r0, #0
 497              	.LVL60:
 498 0042 F8BD     		pop	{r3, r4, r5, r6, r7, pc}
 499              	.LVL61:
ARM GAS  C:\Users\mame\AppData\Local\Temp\ccE2JfyV.s 			page 13


 500              	.L33:
 501              		.loc 1 176 0
 502 0044 F8BD     		pop	{r3, r4, r5, r6, r7, pc}
 503              		.cfi_endproc
 504              	.LFE6:
 505              		.size	strextract, .-strextract
 506 0046 00BF     		.section	.text.for_each,"ax",%progbits
 507              		.align	2
 508              		.global	for_each
 509              		.thumb
 510              		.thumb_func
 511              		.type	for_each, %function
 512              	for_each:
 513              	.LFB7:
 177:strlib.c      **** 
 178:strlib.c      **** void for_each(void *begin, void *end, size_t sz, void (*fn)(void *a)) {
 514              		.loc 1 178 0
 515              		.cfi_startproc
 516              		@ args = 0, pretend = 0, frame = 0
 517              		@ frame_needed = 0, uses_anonymous_args = 0
 518              	.LVL62:
 519 0000 F8B5     		push	{r3, r4, r5, r6, r7, lr}
 520              		.cfi_def_cfa_offset 24
 521              		.cfi_offset 3, -24
 522              		.cfi_offset 4, -20
 523              		.cfi_offset 5, -16
 524              		.cfi_offset 6, -12
 525              		.cfi_offset 7, -8
 526              		.cfi_offset 14, -4
 527 0002 0446     		mov	r4, r0
 528 0004 0D46     		mov	r5, r1
 529 0006 1746     		mov	r7, r2
 530 0008 1E46     		mov	r6, r3
 531              	.LVL63:
 179:strlib.c      ****     char *ptr = begin;
 180:strlib.c      ****     char *last = end;
 181:strlib.c      **** 
 182:strlib.c      ****     while (ptr < last) {
 532              		.loc 1 182 0
 533 000a 02E0     		b	.L36
 534              	.LVL64:
 535              	.L37:
 183:strlib.c      ****         fn(ptr);
 536              		.loc 1 183 0
 537 000c 2046     		mov	r0, r4
 538 000e B047     		blx	r6
 539              	.LVL65:
 184:strlib.c      ****         ptr += sz;
 540              		.loc 1 184 0
 541 0010 3C44     		add	r4, r4, r7
 542              	.LVL66:
 543              	.L36:
 182:strlib.c      ****         fn(ptr);
 544              		.loc 1 182 0
 545 0012 AC42     		cmp	r4, r5
 546 0014 FAD3     		bcc	.L37
 185:strlib.c      ****     }
ARM GAS  C:\Users\mame\AppData\Local\Temp\ccE2JfyV.s 			page 14


 186:strlib.c      **** }
 547              		.loc 1 186 0
 548 0016 F8BD     		pop	{r3, r4, r5, r6, r7, pc}
 549              		.cfi_endproc
 550              	.LFE7:
 551              		.size	for_each, .-for_each
 552              		.global	__aeabi_f2d
 553              		.global	__aeabi_ddiv
 554              		.global	__aeabi_dadd
 555              		.global	__aeabi_d2uiz
 556              		.section	.text.gps_parse,"ax",%progbits
 557              		.align	2
 558              		.global	gps_parse
 559              		.thumb
 560              		.thumb_func
 561              		.type	gps_parse, %function
 562              	gps_parse:
 563              	.LFB8:
 187:strlib.c      **** 
 188:strlib.c      **** uint8_t gps_parse(const char *gps_string, float *lat, float *lon, float *hdop,
 189:strlib.c      ****                   float *altitude, uint8_t *gps_fix, float *cog, float *spkm,
 190:strlib.c      ****                   float *spkn, uint8_t *nsat) {
 564              		.loc 1 190 0
 565              		.cfi_startproc
 566              		@ args = 24, pretend = 0, frame = 176
 567              		@ frame_needed = 0, uses_anonymous_args = 0
 568              	.LVL67:
 569 0000 2DE9F04F 		push	{r4, r5, r6, r7, r8, r9, r10, fp, lr}
 570              		.cfi_def_cfa_offset 36
 571              		.cfi_offset 4, -36
 572              		.cfi_offset 5, -32
 573              		.cfi_offset 6, -28
 574              		.cfi_offset 7, -24
 575              		.cfi_offset 8, -20
 576              		.cfi_offset 9, -16
 577              		.cfi_offset 10, -12
 578              		.cfi_offset 11, -8
 579              		.cfi_offset 14, -4
 580 0004 ADB0     		sub	sp, sp, #180
 581              		.cfi_def_cfa_offset 216
 582 0006 0D46     		mov	r5, r1
 583 0008 1446     		mov	r4, r2
 584 000a 9A46     		mov	r10, r3
 191:strlib.c      ****     char substring[100];
 192:strlib.c      ****     const char delim[2] = ",";
 585              		.loc 1 192 0
 586 000c 2C23     		movs	r3, #44
 587              	.LVL68:
 588 000e ADF84830 		strh	r3, [sp, #72]	@ movhi
 193:strlib.c      ****     const char *output_array[11];
 194:strlib.c      ****     int i;
 195:strlib.c      ****     char latdeg[3] = {'\0'};
 589              		.loc 1 195 0
 590 0012 0023     		movs	r3, #0
 591 0014 ADF81830 		strh	r3, [sp, #24]	@ movhi
 592 0018 8DF81A30 		strb	r3, [sp, #26]
 196:strlib.c      ****     char latmin[8] = {'\0'};
ARM GAS  C:\Users\mame\AppData\Local\Temp\ccE2JfyV.s 			page 15


 593              		.loc 1 196 0
 594 001c 0493     		str	r3, [sp, #16]
 595 001e 0593     		str	r3, [sp, #20]
 197:strlib.c      ****     char londeg[4] = {'\0'};
 596              		.loc 1 197 0
 597 0020 0393     		str	r3, [sp, #12]
 198:strlib.c      ****     char lonmin[8] = {'\0'};
 598              		.loc 1 198 0
 599 0022 0193     		str	r3, [sp, #4]
 600 0024 0293     		str	r3, [sp, #8]
 199:strlib.c      **** 
 200:strlib.c      ****     if (strextract(gps_string, substring, "GPSACP: ", "\r\n")) {
 601              		.loc 1 200 0
 602 0026 5C4B     		ldr	r3, .L49
 603 0028 5C4A     		ldr	r2, .L49+4
 604              	.LVL69:
 605 002a 13A9     		add	r1, sp, #76
 606              	.LVL70:
 607 002c FFF7FEFF 		bl	strextract
 608              	.LVL71:
 609 0030 0028     		cmp	r0, #0
 610 0032 00F0A680 		beq	.L44
 201:strlib.c      ****         // Save UTC to dummy variable
 202:strlib.c      ****         output_array[0] = strtok(substring, delim);
 611              		.loc 1 202 0
 612 0036 12A9     		add	r1, sp, #72
 613 0038 13A8     		add	r0, sp, #76
 614 003a FFF7FEFF 		bl	strtok
 615              	.LVL72:
 203:strlib.c      **** 
 204:strlib.c      ****         if (output_array[0] == NULL) {
 616              		.loc 1 204 0
 617 003e 0028     		cmp	r0, #0
 618 0040 00F0A180 		beq	.L45
 619 0044 0126     		movs	r6, #1
 620 0046 0CE0     		b	.L41
 621              	.LVL73:
 622              	.L42:
 205:strlib.c      ****             return 0u;
 206:strlib.c      ****         }
 207:strlib.c      **** 
 208:strlib.c      ****         for (i = 1; i < 11; i++) {
 209:strlib.c      ****             output_array[i] = strtok(NULL, delim);
 623              		.loc 1 209 0
 624 0048 12A9     		add	r1, sp, #72
 625 004a 0020     		movs	r0, #0
 626 004c FFF7FEFF 		bl	strtok
 627              	.LVL74:
 628 0050 2CAB     		add	r3, sp, #176
 629 0052 03EB8603 		add	r3, r3, r6, lsl #2
 630 0056 43F8940C 		str	r0, [r3, #-148]
 210:strlib.c      ****             if (output_array[i] == NULL) {
 631              		.loc 1 210 0
 632 005a 0028     		cmp	r0, #0
 633 005c 00F09580 		beq	.L46
 208:strlib.c      ****             output_array[i] = strtok(NULL, delim);
 634              		.loc 1 208 0 discriminator 2
ARM GAS  C:\Users\mame\AppData\Local\Temp\ccE2JfyV.s 			page 16


 635 0060 0136     		adds	r6, r6, #1
 636              	.LVL75:
 637              	.L41:
 208:strlib.c      ****             output_array[i] = strtok(NULL, delim);
 638              		.loc 1 208 0 is_stmt 0 discriminator 1
 639 0062 0A2E     		cmp	r6, #10
 640 0064 F0DD     		ble	.L42
 211:strlib.c      ****                 return 0u;
 212:strlib.c      ****             }
 213:strlib.c      ****         }
 214:strlib.c      **** 
 215:strlib.c      ****         strncpy(latdeg, output_array[1], 2);
 641              		.loc 1 215 0 is_stmt 1
 642 0066 089F     		ldr	r7, [sp, #32]
 643 0068 0222     		movs	r2, #2
 644 006a 3946     		mov	r1, r7
 645 006c 06A8     		add	r0, sp, #24
 646 006e FFF7FEFF 		bl	strncpy
 647              	.LVL76:
 216:strlib.c      ****         strncpy(latmin, output_array[1] + 2, 7);
 648              		.loc 1 216 0
 649 0072 0722     		movs	r2, #7
 650 0074 B91C     		adds	r1, r7, #2
 651 0076 04A8     		add	r0, sp, #16
 652 0078 FFF7FEFF 		bl	strncpy
 653              	.LVL77:
 217:strlib.c      ****         strncpy(londeg, output_array[2], 3);
 654              		.loc 1 217 0
 655 007c 099E     		ldr	r6, [sp, #36]
 656              	.LVL78:
 657 007e 0322     		movs	r2, #3
 658 0080 3146     		mov	r1, r6
 659 0082 03A8     		add	r0, sp, #12
 660 0084 FFF7FEFF 		bl	strncpy
 661              	.LVL79:
 218:strlib.c      ****         strncpy(lonmin, output_array[2] + 3, 7);
 662              		.loc 1 218 0
 663 0088 0722     		movs	r2, #7
 664 008a F11C     		adds	r1, r6, #3
 665 008c 01A8     		add	r0, sp, #4
 666 008e FFF7FEFF 		bl	strncpy
 667              	.LVL80:
 219:strlib.c      ****         // STILL NEED TO ACCOUNT FOR W/E and N/S
 220:strlib.c      **** 
 221:strlib.c      ****         *lat = strtof(latdeg, NULL) + (strtof(latmin, NULL) / 60.0);
 668              		.loc 1 221 0
 669 0092 0021     		movs	r1, #0
 670 0094 06A8     		add	r0, sp, #24
 671 0096 FFF7FEFF 		bl	strtof
 672              	.LVL81:
 673 009a 8346     		mov	fp, r0
 674 009c 0021     		movs	r1, #0
 675 009e 04A8     		add	r0, sp, #16
 676 00a0 FFF7FEFF 		bl	strtof
 677              	.LVL82:
 678 00a4 FFF7FEFF 		bl	__aeabi_f2d
 679              	.LVL83:
ARM GAS  C:\Users\mame\AppData\Local\Temp\ccE2JfyV.s 			page 17


 680 00a8 0022     		movs	r2, #0
 681 00aa 3D4B     		ldr	r3, .L49+8
 682 00ac FFF7FEFF 		bl	__aeabi_ddiv
 683              	.LVL84:
 684 00b0 8046     		mov	r8, r0
 685 00b2 8946     		mov	r9, r1
 686 00b4 5846     		mov	r0, fp
 687 00b6 FFF7FEFF 		bl	__aeabi_f2d
 688              	.LVL85:
 689 00ba 4246     		mov	r2, r8
 690 00bc 4B46     		mov	r3, r9
 691 00be FFF7FEFF 		bl	__aeabi_dadd
 692              	.LVL86:
 693 00c2 FFF7FEFF 		bl	__aeabi_d2f
 694              	.LVL87:
 695 00c6 2860     		str	r0, [r5]	@ float
 222:strlib.c      ****         *lon = strtof(londeg, NULL) + (strtof(lonmin, NULL) / 60.0);
 696              		.loc 1 222 0
 697 00c8 0021     		movs	r1, #0
 698 00ca 03A8     		add	r0, sp, #12
 699 00cc FFF7FEFF 		bl	strtof
 700              	.LVL88:
 701 00d0 8346     		mov	fp, r0
 702 00d2 0021     		movs	r1, #0
 703 00d4 01A8     		add	r0, sp, #4
 704 00d6 FFF7FEFF 		bl	strtof
 705              	.LVL89:
 706 00da FFF7FEFF 		bl	__aeabi_f2d
 707              	.LVL90:
 708 00de 0022     		movs	r2, #0
 709 00e0 2F4B     		ldr	r3, .L49+8
 710 00e2 FFF7FEFF 		bl	__aeabi_ddiv
 711              	.LVL91:
 712 00e6 8046     		mov	r8, r0
 713 00e8 8946     		mov	r9, r1
 714 00ea 5846     		mov	r0, fp
 715 00ec FFF7FEFF 		bl	__aeabi_f2d
 716              	.LVL92:
 717 00f0 4246     		mov	r2, r8
 718 00f2 4B46     		mov	r3, r9
 719 00f4 FFF7FEFF 		bl	__aeabi_dadd
 720              	.LVL93:
 721 00f8 FFF7FEFF 		bl	__aeabi_d2f
 722              	.LVL94:
 723 00fc 2060     		str	r0, [r4]	@ float
 223:strlib.c      ****         *hdop = strtof(output_array[3], NULL);
 724              		.loc 1 223 0
 725 00fe 0021     		movs	r1, #0
 726 0100 0A98     		ldr	r0, [sp, #40]
 727 0102 FFF7FEFF 		bl	strtof
 728              	.LVL95:
 729 0106 CAF80000 		str	r0, [r10]	@ float
 224:strlib.c      ****         *altitude = strtof(output_array[4], NULL);
 730              		.loc 1 224 0
 731 010a 0021     		movs	r1, #0
 732 010c 0B98     		ldr	r0, [sp, #44]
 733 010e FFF7FEFF 		bl	strtof
ARM GAS  C:\Users\mame\AppData\Local\Temp\ccE2JfyV.s 			page 18


 734              	.LVL96:
 735 0112 369B     		ldr	r3, [sp, #216]
 736 0114 1860     		str	r0, [r3]	@ float
 225:strlib.c      ****         *gps_fix = strtod(output_array[5], NULL);
 737              		.loc 1 225 0
 738 0116 0021     		movs	r1, #0
 739 0118 0C98     		ldr	r0, [sp, #48]
 740 011a FFF7FEFF 		bl	strtod
 741              	.LVL97:
 742 011e FFF7FEFF 		bl	__aeabi_d2uiz
 743              	.LVL98:
 744 0122 379B     		ldr	r3, [sp, #220]
 745 0124 1870     		strb	r0, [r3]
 226:strlib.c      ****         *cog = strtof(output_array[6], NULL);
 746              		.loc 1 226 0
 747 0126 0021     		movs	r1, #0
 748 0128 0D98     		ldr	r0, [sp, #52]
 749 012a FFF7FEFF 		bl	strtof
 750              	.LVL99:
 751 012e 389B     		ldr	r3, [sp, #224]
 752 0130 1860     		str	r0, [r3]	@ float
 227:strlib.c      ****         *spkm = strtof(output_array[7], NULL);
 753              		.loc 1 227 0
 754 0132 0021     		movs	r1, #0
 755 0134 0E98     		ldr	r0, [sp, #56]
 756 0136 FFF7FEFF 		bl	strtof
 757              	.LVL100:
 758 013a 399B     		ldr	r3, [sp, #228]
 759 013c 1860     		str	r0, [r3]	@ float
 228:strlib.c      ****         *spkn = strtof(output_array[8], NULL);
 760              		.loc 1 228 0
 761 013e 0021     		movs	r1, #0
 762 0140 0F98     		ldr	r0, [sp, #60]
 763 0142 FFF7FEFF 		bl	strtof
 764              	.LVL101:
 765 0146 3A9B     		ldr	r3, [sp, #232]
 766 0148 1860     		str	r0, [r3]	@ float
 229:strlib.c      ****         *nsat = strtod(output_array[10], NULL);
 767              		.loc 1 229 0
 768 014a 0021     		movs	r1, #0
 769 014c 1198     		ldr	r0, [sp, #68]
 770 014e FFF7FEFF 		bl	strtod
 771              	.LVL102:
 772 0152 FFF7FEFF 		bl	__aeabi_d2uiz
 773              	.LVL103:
 774 0156 3B9B     		ldr	r3, [sp, #236]
 775 0158 1870     		strb	r0, [r3]
 230:strlib.c      ****         if (strstr(output_array[1], "S") != NULL) {
 776              		.loc 1 230 0
 777 015a 5321     		movs	r1, #83
 778 015c 3846     		mov	r0, r7
 779 015e FFF7FEFF 		bl	strchr
 780              	.LVL104:
 781 0162 18B1     		cbz	r0, .L43
 231:strlib.c      ****             (*lat) *= -1.0;
 782              		.loc 1 231 0
 783 0164 2B68     		ldr	r3, [r5]
ARM GAS  C:\Users\mame\AppData\Local\Temp\ccE2JfyV.s 			page 19


 784 0166 03F10043 		add	r3, r3, #-2147483648
 785 016a 2B60     		str	r3, [r5]	@ float
 786              	.L43:
 232:strlib.c      ****         }
 233:strlib.c      ****         if (strstr(output_array[2], "W") != NULL) {
 787              		.loc 1 233 0
 788 016c 5721     		movs	r1, #87
 789 016e 3046     		mov	r0, r6
 790 0170 FFF7FEFF 		bl	strchr
 791              	.LVL105:
 792 0174 58B1     		cbz	r0, .L47
 234:strlib.c      ****             (*lon) *= -1.0;
 793              		.loc 1 234 0
 794 0176 2368     		ldr	r3, [r4]
 795 0178 03F10043 		add	r3, r3, #-2147483648
 796 017c 2360     		str	r3, [r4]	@ float
 235:strlib.c      ****         }
 236:strlib.c      ****         return 1u;
 797              		.loc 1 236 0
 798 017e 0120     		movs	r0, #1
 799 0180 06E0     		b	.L40
 800              	.L44:
 237:strlib.c      ****     }
 238:strlib.c      ****     return 0u;
 801              		.loc 1 238 0
 802 0182 0020     		movs	r0, #0
 803 0184 04E0     		b	.L40
 804              	.L45:
 205:strlib.c      ****         }
 805              		.loc 1 205 0
 806 0186 0020     		movs	r0, #0
 807 0188 02E0     		b	.L40
 808              	.LVL106:
 809              	.L46:
 211:strlib.c      ****             }
 810              		.loc 1 211 0
 811 018a 0020     		movs	r0, #0
 812 018c 00E0     		b	.L40
 813              	.LVL107:
 814              	.L47:
 236:strlib.c      ****     }
 815              		.loc 1 236 0
 816 018e 0120     		movs	r0, #1
 817              	.L40:
 239:strlib.c      **** }
 818              		.loc 1 239 0
 819 0190 2DB0     		add	sp, sp, #180
 820              		.cfi_def_cfa_offset 36
 821              		@ sp needed
 822 0192 BDE8F08F 		pop	{r4, r5, r6, r7, r8, r9, r10, fp, pc}
 823              	.LVL108:
 824              	.L50:
 825 0196 00BF     		.align	2
 826              	.L49:
 827 0198 0C000000 		.word	.LC2
 828 019c 10000000 		.word	.LC3
 829 01a0 00004E40 		.word	1078853632
ARM GAS  C:\Users\mame\AppData\Local\Temp\ccE2JfyV.s 			page 20


 830              		.cfi_endproc
 831              	.LFE8:
 832              		.size	gps_parse, .-gps_parse
 833              		.section	.text.parse_http_status,"ax",%progbits
 834              		.align	2
 835              		.global	parse_http_status
 836              		.thumb
 837              		.thumb_func
 838              		.type	parse_http_status, %function
 839              	parse_http_status:
 840              	.LFB9:
 240:strlib.c      **** 
 241:strlib.c      **** /*
 242:strlib.c      **** Searches a string "http_status" for and attempts to parse the status line.
 243:strlib.c      **** Leverages Status-Line protocol for HTTP/1.0 and HTTP/1.1
 244:strlib.c      **** 
 245:strlib.c      ****     Status-Line = HTTP-Version SP Status-Code SP Reason-Phrase CRLF
 246:strlib.c      **** 
 247:strlib.c      **** (See https://www.w3.org/Protocols/HTTP/1.0/spec.html#Status-Line.
 248:strlib.c      ****  SP is a space, CRLF is carriage return line feed)
 249:strlib.c      **** 
 250:strlib.c      **** Stores the results in "version", "status_code", and "phrase"
 251:strlib.c      **** */
 252:strlib.c      **** uint8_t parse_http_status(char *http_status, char *version, char *status_code,
 253:strlib.c      ****                           char *phrase) {
 841              		.loc 1 253 0
 842              		.cfi_startproc
 843              		@ args = 0, pretend = 0, frame = 0
 844              		@ frame_needed = 0, uses_anonymous_args = 0
 845              	.LVL109:
 846 0000 70B5     		push	{r4, r5, r6, lr}
 847              		.cfi_def_cfa_offset 16
 848              		.cfi_offset 4, -16
 849              		.cfi_offset 5, -12
 850              		.cfi_offset 6, -8
 851              		.cfi_offset 14, -4
 852 0002 1646     		mov	r6, r2
 853 0004 1C46     		mov	r4, r3
 254:strlib.c      ****     const char *space = strextract(http_status, version, "HTTP/", " ");
 854              		.loc 1 254 0
 855 0006 0C4B     		ldr	r3, .L57
 856              	.LVL110:
 857 0008 0C4A     		ldr	r2, .L57+4
 858              	.LVL111:
 859 000a FFF7FEFF 		bl	strextract
 860              	.LVL112:
 255:strlib.c      ****     const char *next_space = NULL;
 256:strlib.c      ****     const char *terminator = NULL;
 257:strlib.c      **** 
 258:strlib.c      ****     if (space != NULL) {
 861              		.loc 1 258 0
 862 000e 28B1     		cbz	r0, .L54
 259:strlib.c      ****         next_space = strextract(space, status_code, " ", " ");
 863              		.loc 1 259 0
 864 0010 094A     		ldr	r2, .L57
 865 0012 1346     		mov	r3, r2
 866 0014 3146     		mov	r1, r6
ARM GAS  C:\Users\mame\AppData\Local\Temp\ccE2JfyV.s 			page 21


 867 0016 FFF7FEFF 		bl	strextract
 868              	.LVL113:
 869 001a 00E0     		b	.L52
 870              	.LVL114:
 871              	.L54:
 255:strlib.c      ****     const char *next_space = NULL;
 872              		.loc 1 255 0
 873 001c 0020     		movs	r0, #0
 874              	.LVL115:
 875              	.L52:
 260:strlib.c      ****     }
 261:strlib.c      **** 
 262:strlib.c      ****     if (next_space != NULL) {
 876              		.loc 1 262 0
 877 001e 28B1     		cbz	r0, .L55
 263:strlib.c      ****         terminator = strextract(next_space, phrase, " ", "\r\n");
 878              		.loc 1 263 0
 879 0020 074B     		ldr	r3, .L57+8
 880 0022 054A     		ldr	r2, .L57
 881 0024 2146     		mov	r1, r4
 882 0026 FFF7FEFF 		bl	strextract
 883              	.LVL116:
 884 002a 00E0     		b	.L53
 885              	.LVL117:
 886              	.L55:
 256:strlib.c      **** 
 887              		.loc 1 256 0
 888 002c 0020     		movs	r0, #0
 889              	.LVL118:
 890              	.L53:
 264:strlib.c      ****     }
 265:strlib.c      **** 
 266:strlib.c      ****     return terminator != NULL;
 267:strlib.c      **** }
 891              		.loc 1 267 0
 892 002e 0030     		adds	r0, r0, #0
 893 0030 18BF     		it	ne
 894 0032 0120     		movne	r0, #1
 895              	.LVL119:
 896 0034 70BD     		pop	{r4, r5, r6, pc}
 897              	.LVL120:
 898              	.L58:
 899 0036 00BF     		.align	2
 900              	.L57:
 901 0038 1C000000 		.word	.LC4
 902 003c 20000000 		.word	.LC5
 903 0040 0C000000 		.word	.LC2
 904              		.cfi_endproc
 905              	.LFE9:
 906              		.size	parse_http_status, .-parse_http_status
 907              		.section	.rodata.str1.4,"aMS",%progbits,1
 908              		.align	2
 909              	.LC0:
 910 0000 5A222C00 		.ascii	"Z\",\000"
 911              	.LC1:
 912 0004 6E756C6C 		.ascii	"null\000"
 912      00
ARM GAS  C:\Users\mame\AppData\Local\Temp\ccE2JfyV.s 			page 22


 913 0009 000000   		.space	3
 914              	.LC2:
 915 000c 0D0A00   		.ascii	"\015\012\000"
 916 000f 00       		.space	1
 917              	.LC3:
 918 0010 47505341 		.ascii	"GPSACP: \000"
 918      43503A20 
 918      00
 919 0019 000000   		.space	3
 920              	.LC4:
 921 001c 2000     		.ascii	" \000"
 922 001e 0000     		.space	2
 923              	.LC5:
 924 0020 48545450 		.ascii	"HTTP/\000"
 924      2F00
 925              		.text
 926              	.Letext0:
 927              		.file 2 "c:\\program files\\cypress\\psoc creator\\4.1\\psoc creator\\import\\gnu\\arm\\5.4.1\\lib
 928              		.file 3 "c:\\program files\\cypress\\psoc creator\\4.1\\psoc creator\\import\\gnu\\arm\\5.4.1\\arm
 929              		.file 4 "c:\\program files\\cypress\\psoc creator\\4.1\\psoc creator\\import\\gnu\\arm\\5.4.1\\arm
 930              		.file 5 "c:\\program files\\cypress\\psoc creator\\4.1\\psoc creator\\import\\gnu\\arm\\5.4.1\\lib
 931              		.file 6 "c:\\program files\\cypress\\psoc creator\\4.1\\psoc creator\\import\\gnu\\arm\\5.4.1\\arm
 932              		.file 7 "c:\\program files\\cypress\\psoc creator\\4.1\\psoc creator\\import\\gnu\\arm\\5.4.1\\arm
 933              		.file 8 "<built-in>"